(dp0
Vm.0yhsc6q
p1
I0
sVm.0v1xl8p
p2
I1
sVm.02tqkf
p3
I2
sVm.01z452
p4
I3
sVm.05srdcq
p5
I4
sVm.05148p4
p6
I5
sVm.01y2jks
p7
I6
sVm.0h1nyg
p8
I7
sVm.03ykrby
p9
I8
sVm.05srdch
p10
I9
sVm.0_4654w
p11
I10
sVm.03hx97t
p12
I11
sVm.04gt0q7
p13
I12
sVm.03cc8rv
p14
I13
sVm.05srdc1
p15
I14
sVm.05srdc8
p16
I15
sVm.02tgz4
p17
I2970
sVm.0llcx
p18
I17
sVm.07c9s
p19
I18
sVm.0gy8pbk
p20
I19
sVm.0234j5
p21
I20
sVm.05pmzb
p22
I21
sVm.03w9gp_
p23
I22
sVm.0z4n383
p24
I23
sVm.02_nsc
p25
I24
sVm.0dltr3y
p26
I25
sVm.03h84x
p27
I4952
sVm.07qjms
p28
I27
sVm.098s2w
p29
I28
sVm.0n9prm5
p30
I29
sVm.0jzfgh7
p31
I30
sVm.03nsf9j
p32
I31
sVm.0dh7nl
p33
I32
sVm.0gh7d8p
p34
I33
sVm.09hq9g
p35
I34
sVm.013df0zv
p36
I35
sVg.1233lv8s
p37
I37
sVm.0jgjn
p38
I38
sVm.0gy21hq
p39
I39
sVm.02z59y_
p40
I40
sVm.09hfyy
p41
I2981
sVm.0yp1tt7
p42
I42
sVm.01b7b
p43
I43
sVm.02ndy4
p44
I44
sVm.04j2gtf
p45
I2982
sVm.05csx
p46
I46
sVm.01t6qc
p47
I47
sVm.06wxw
p48
I48
sVm.0y5c5p4
p49
I49
sVm.083pr
p50
I50
sVm.0w49yvc
p51
I51
sVm.0fg04
p52
I52
sVm.0gkfgj8
p53
I53
sVm.057787
p54
I54
sVm.05bg37d
p55
I55
sVm.0ydw6yr
p56
I56
sVm.05v3ngw
p57
I57
sVm.0y85n36
p58
I58
sVm.02_6z
p59
I59
sVm.083p7
p60
I60
sVm.0hhxn2q
p61
I61
sVm.04043ys
p62
I62
sVm.03f7nt
p63
I63
sVm.0hhxn2y
p64
I64
sVm.01m2s4y
p65
I65
sVm.0tl49gl
p66
I66
sVm.019wds
p67
I67
sVm.027bjfz
p68
I68
sVm.0hb8cvj
p69
I69
sVm.0fzzwy
p70
I2986
sVm.04kcrfz
p71
I4961
sVm.0vmycdw
p72
I72
sVm.0dlns08
p73
I73
sVm.0zmb5d2
p74
I74
sVm.0v0fb9k
p75
I75
sVm.09glyf7
p76
I76
sVm.0w4bjl4
p77
I77
sVm.0y5whjq
p78
I78
sVm.0nhfw8d
p79
I79
sVm.047b6z
p80
I80
sVm.0y62vld
p81
I81
sVm.0bqkbj
p82
I82
sVm.0ddp2
p83
I83
sVm.0wyf4z_
p84
I84
sVm.0y7nf0z
p85
I85
sVm.08nbj8k
p86
I86
sVm.0yhszyf
p87
I87
sVm.01kn6h
p88
I88
sVm.0ydzkbb
p89
I89
sVm.0hncbxz
p90
I90
sVm.0grs53
p91
I91
sVm.05ntsnx
p92
I92
sVm.026plrr
p93
I93
sVm.0vmyg0t
p94
I94
sVm.06z5s
p95
I95
sVm.0gw5341
p96
I96
sVm.05ntsnd
p97
I97
sVm.02mjmr
p98
I1039
sVm.0y5mgv9
p99
I99
sVm.0v1k8xc
p100
I100
sVm.0y62x8z
p101
I101
sVm.0gl_8dj
p102
I102
sVm.0yct0qz
p103
I103
sVm.0wyq459
p104
I104
sVm.067tsz
p105
I105
sVm.0z5bw2h
p106
I106
sVm.0y5wg_8
p107
I107
sVm.04yc76
p108
I108
sVm.05bh4z
p109
I109
sVm.0gl_8ds
p110
I110
sVm.0gkz15s
p111
I111
sVm.015kp7
p112
I757
sVm.0y7nfhf
p113
I113
sVm.03w5clp
p114
I114
sVm.0p19fc_
p115
I115
sVm.02m29p
p116
I116
sVg.11b6v4ybdd
p117
I780
sVm.0y7nl3n
p118
I118
sVm.0w4b753
p119
I119
sVm.0gl_8d8
p120
I120
sVm.0vvhb6q
p121
I121
sVm.02qhlwd
p122
I1993
sVm.0gl_8d0
p123
I123
sVm.0tl317x
p124
I124
sVm.0y84tz8
p125
I125
sVm.0263ssx
p126
I126
sVm.0gp87
p127
I127
sVm.0f3m1
p128
I128
sVm.0396b
p129
I129
sVm.04wbkq
p130
I130
sVm.034rd
p131
I131
sVm.0gxmzg1
p132
I5508
sVm.059pp9_
p133
I132
sVm.0y7m_3b
p134
I133
sVm.05q9pvs
p135
I134
sVm.07xwz3
p136
I135
sVm.01gc7h
p137
I136
sVm.0y9076y
p138
I137
sVm.0b76d_m
p139
I138
sVm.080jwv8
p140
I139
sVm.0tkw89_
p141
I140
sVm.0pbxj4q
p142
I141
sVm.076y_62
p143
I142
sVm.0cgrv6h
p144
I143
sVm.0gxs98b
p145
I144
sVm.09qwmm
p146
I145
sVm.0gmk79m
p147
I146
sVm.01sxq9
p148
I147
sVm.02d12l
p149
I148
sVm.08zf_n
p150
I149
sVm.058kh7
p151
I150
sVm.0p8g747
p152
I151
sVm.04lqy59
p153
I152
sVm.0kfrnwy
p154
I153
sVm.0wyqh5d
p155
I154
sVm.0cl8jm
p156
I155
sVm.0y5mcc5
p157
I156
sVm.0hgx02r
p158
I157
sVm.0_cdzjp
p159
I158
sVm.0y85090
p160
I159
sVm.05mkhs
p161
I160
sVm.0bv_2g8
p162
I161
sVm.084cd4
p163
I162
sVm.0v1kwnm
p164
I163
sVm.01pg1t
p165
I164
sVm.0y7nhj6
p166
I165
sVm.03_nq
p167
I166
sVm.0hgx028
p168
I167
sVm.0t51xk6
p169
I168
sVm.0fhd0v
p170
I169
sVm.0y60wmc
p171
I170
sVm.01xr_d2
p172
I171
sVm.0y7n262
p173
I172
sVm.02qd0r
p174
I173
sVm.0y7n639
p175
I3002
sVm.0gyp72m
p176
I175
sVm.0h2j5l6
p177
I176
sVm.010vy8pf
p178
I177
sVm.026nwjw
p179
I178
sVm.0ch12l3
p180
I179
sVm.0272k1f
p181
I1181
sVm.0286jn1
p182
I181
sVm.0dxpzv
p183
I182
sVm.0vs7qmh
p184
I183
sVm.0b__qj9
p185
I184
sVm.0y84t2f
p186
I185
sVm.0cd3kf
p187
I186
sVm.01yzvd
p188
I187
sVm.0yd9527
p189
I188
sVm.0702js
p190
I189
sVm.0tl390k
p191
I190
sVm.0wz4rxb
p192
I191
sVm.0y5wtr9
p193
I192
sVm.0w4bf8j
p194
I193
sVm.08fn5b
p195
I3003
sVm.0z4ndr_
p196
I195
sVm.08cpnf
p197
I196
sVm.0g604g
p198
I197
sVm.0yhsck3
p199
I198
sVm.02vn1ld
p200
I199
sVm.0y7n0pk
p201
I200
sVm.01nhdy
p202
I201
sVm.0bxcdm
p203
I202
sVm.051_2f9
p204
I2632
sVm.0ch0zt
p205
I203
sVm.0y8cw6t
p206
I204
sVm.0fst67
p207
I205
sVm.02qr8lh
p208
I206
sVm.0sgqfm0
p209
I207
sVm.0cq261
p210
I208
sVm.0294qn
p211
I209
sVm.09tqkv2
p212
I210
sVm.02y_j8g
p213
I211
sVm.0y5wspd
p214
I3006
sVm.0v404m5
p215
I213
sVm.099t8j
p216
I214
sVm.0v27x_7
p217
I215
sVm.0dltr1t
p218
I216
sVm.01c8sr
p219
I217
sVm.06d0zt
p220
I218
sVm.06wb3td
p221
I219
sVm.0y8z_q1
p222
I220
sVm.08052t3
p223
I221
sVm.0hypmnr
p224
I222
sVm.0gwymwr
p225
I223
sVm.0zfnqqs
p226
I224
sVm.0svr7hq
p227
I225
sVm.0yhsfdx
p228
I226
sVm.07g1zs
p229
I227
sVm.0djb05y
p230
I228
sVm.0j7l95d
p231
I229
sVm.0g__91b
p232
I230
sVm.014kmw
p233
I231
sVm.0x0dpvg
p234
I233
sVm.067gzs
p235
I234
sVm.0g45mc
p236
I235
sVm.026hz77
p237
I236
sVm.01jfsb
p238
I237
sVm.0w49yh7
p239
I238
sVm.0372hv
p240
I239
sVm.07vdc8
p241
I240
sVm.0275kr
p242
I241
sVm.0_rh80p
p243
I242
sVm.03bydl0
p244
I1630
sVm.02vk3p1
p245
I244
sVm.0ycsvst
p246
I245
sVm.011lmc
p247
I246
sVm.0372h4
p248
I247
sVm.02pwgv
p249
I248
sVm.0252js2
p250
I249
sVm.04zx3q1
p251
I250
sVm.026nxb9
p252
I251
sVm.0nd4fjm
p253
I252
sVm.03c8kck
p254
I253
sVm.0c9s_x
p255
I254
sVm.06tkpw
p256
I255
sVm.0t4wxnw
p257
I256
sVm.075r2vq
p258
I257
sVm.02ql1gl
p259
I258
sVm.0yht161
p260
I1703
sVm.0y90nth
p261
I3017
sVm.0y7zx8z
p262
I261
sVm.0h5m7b3
p263
I262
sVm.03_28z
p264
I263
sVm.075nhsl
p265
I264
sVm.0cs17mf
p266
I265
sVm.0vmyft6
p267
I266
sVm.0gz5fvy
p268
I267
sVm.0yhry1k
p269
I268
sVm.0270t03
p270
I269
sVm.0w4bjj6
p271
I1749
sVm.03yr4v
p272
I271
sVm.04kcmlr
p273
I272
sVm.01pkb4
p274
I273
sVm.067h30
p275
I274
sVm.0z4ljw6
p276
I1786
sVm.0vymn_h
p277
I276
sVm.0glzmjg
p278
I1074
sVm.0y5c6lb
p279
I278
sVm.01vjmvg
p280
I279
sVm.0y7vlv0
p281
I280
sVm.0vmyg2_
p282
I281
sVm.0p8gzmg
p283
I282
sVm.0y5mgtv
p284
I283
sVm.03flsn
p285
I284
sVm.0y90gb0
p286
I285
sVm.0bf4bn5
p287
I286
sVm.03wjyj
p288
I287
sVm.07kb7vh
p289
I288
sVm.0f41jl
p290
I289
sVm.0hyf1
p291
I290
sVm.07847f
p292
I291
sVm.0y5mgt6
p293
I292
sVm.081pw
p294
I2765
sVm.03mgw2v
p295
I293
sVm.06_nny
p296
I294
sVm.0cryr5s
p297
I295
sVm.09nnh5c
p298
I296
sVm.06xt93
p299
I297
sVm.01n7q
p300
I298
sVm.09_swr
p301
I5660
sVm.07kbvrr
p302
I299
sVm.03r6xv
p303
I300
sVm.01xpjyd
p304
I301
sVm.0y7n9cb
p305
I302
sVm.0gl_8fj
p306
I303
sVm.06j7x
p307
I304
sVm.0gl_8ft
p308
I305
sVm.0gdlgkx
p309
I306
sVm.07cfprs
p310
I307
sVm.01xpjyz
p311
I308
sVm.0zfndql
p312
I309
sVm.0dss2
p313
I310
sVm.0bn5nc
p314
I311
sVm.0gx1l
p315
I312
sVm.02kqzn
p316
I313
sVm.04g5ld8
p317
I314
sVm.059l0l
p318
I315
sVm.0w28w1m
p319
I316
sVm.01f7gh
p320
I317
sVm.0bwfrw4
p321
I318
sVm.0w2hz33
p322
I319
sVm.04y0bx
p323
I320
sVm.0y7znqw
p324
I321
sVm.0c6rr7
p325
I322
sVm.060c4
p326
I323
sVm.0gc0pls
p327
I324
sVm.0gl_8f0
p328
I325
sVm.0gl_8f8
p329
I326
sVm.0ycqy0t
p330
I327
sVm.02hxg6z
p331
I328
sVm.0gm47q6
p332
I329
sVm.0y85vzx
p333
I330
sVm.04g9gd
p334
I331
sVm.0990h9
p335
I332
sVm.0bmch_x
p336
I333
sVm.05cpqx
p337
I334
sVm.0vyn6d6
p338
I335
sVm.05zk3lz
p339
I336
sVm.0y5mf__
p340
I337
sVm.0vx6xy4
p341
I338
sVm.0z44dqd
p342
I339
sVm.0134tnr7
p343
I340
sVm.0yd_ngr
p344
I341
sVm.0zfn9kf
p345
I342
sVm.020h04
p346
I343
sVm.0p8fglm
p347
I344
sVm.0y852rk
p348
I345
sVm.061rjg
p349
I346
sVm.03npyfg
p350
I347
sVm.0d060g
p351
I348
sVm.0zn82zs
p352
I349
sVm.07024
p353
I350
sVm.0y5ck_f
p354
I351
sVm.0wz42x0
p355
I352
sVm.04zzxlh
p356
I353
sVm.06t6vl
p357
I354
sVm.0gvd0m2
p358
I355
sVm.04b803
p359
I3148
sVm.02z0m52
p360
I356
sVm.0yhsnsx
p361
I357
sVm.02r3q1z
p362
I358
sVm.043q7k0
p363
I359
sVm.0svr8fn
p364
I360
sVm.05nblxt
p365
I361
sVm.0svr55n
p366
I362
sVm.0y7vs54
p367
I363
sVm.046cz2p
p368
I364
sVm.0cmb18
p369
I365
sVm.047cqf3
p370
I366
sVm.03wcjy2
p371
I368
sVg.11b6s_3jgg
p372
I369
sVm.0kbfd
p373
I370
sVm.0yhrrrj
p374
I371
sVm.01hq1
p375
I372
sVm.0yhqh6b
p376
I373
sVm.0g2byj
p377
I374
sVm.0gvd08l
p378
I375
sVm.02rtg7f
p379
I376
sVm.0yhsyvx
p380
I377
sVm.0v1knx7
p381
I378
sVm.0gvd08v
p382
I379
sVm.03csddg
p383
I380
sVm.0ch2yxb
p384
I381
sVm.0t51bwt
p385
I382
sVm.099cng
p386
I383
sVm.0zwqyry
p387
I384
sVm.03176f
p388
I385
sVm.0y5wl7p
p389
I386
sVm.0y7zn90
p390
I387
sVm.0chgmm
p391
I5010
sVm.0y5ht36
p392
I389
sVm.0cl9kxd
p393
I390
sVm.04_b4m
p394
I391
sVm.04mys4w
p395
I392
sVm.064474
p396
I393
sVm.0n9gl39
p397
I394
sVm.0cl9kxq
p398
I395
sVm.0ddfxtr
p399
I396
sVm.0gks5_8
p400
I397
sVm.0y85t4h
p401
I398
sVm.0yhsb_1
p402
I399
sVm.01rl3kq
p403
I400
sVm.0pc73z0
p404
I401
sVm.0y5ht3t
p405
I402
sVm.0y5htf9
p406
I403
sVm.0zfnmc6
p407
I404
sVm.0f_mlg
p408
I405
sVm.02qn235
p409
I406
sVm.0y5ht3f
p410
I407
sVm.0y5ht3m
p411
I408
sVm.0cl9kx2
p412
I409
sVm.06drd2
p413
I410
sVm.0hqf9vd
p414
I411
sVm.0ydycwl
p415
I412
sVm.0hqf9vm
p416
I413
sVm.0crx291
p417
I414
sVm.01pgzn_
p418
I415
sVm.02nsj6r
p419
I2044
sVm.0h34x6g
p420
I3043
sVm.0140qt
p421
I418
sVm.0281j7w
p422
I419
sVm.0v2fbpb
p423
I420
sVm.0gzh2t
p424
I421
sVm.04pzy
p425
I422
sVm.0y90f9v
p426
I423
sVm.0v_c362
p427
I424
sVm.0j11ycc
p428
I3044
sVm.02bjrlw
p429
I426
sVm.0ds5_72
p430
I427
sVm.0hqf9v5
p431
I428
sVm.09n5b9
p432
I429
sVm.047cvsb
p433
I430
sVm.01xs069
p434
I431
sVm.07c11y
p435
I432
sVm.026nx8y
p436
I433
sVm.01d8yn
p437
I434
sVm.05kx60
p438
I435
sVm.09gnhy6
p439
I436
sVm.0126kk
p440
I437
sVm.01vwyqp
p441
I438
sVm.08dk0b
p442
I439
sVm.02p89zz
p443
I440
sVm.09g8vhw
p444
I441
sVm.068g_2
p445
I1089
sVm.02v_r6
p446
I443
sVm.080dtq
p447
I444
sVm.09bg4l
p448
I445
sVm.07l4yp8
p449
I446
sVm.01kyyl
p450
I447
sVm.07_j0p
p451
I448
sVm.07jqh
p452
I449
sVm.09s8wy
p453
I450
sVm.0y7n4b0
p454
I451
sVm.02gz9t
p455
I452
sVm.0jgns
p456
I453
sVm.0c2pz3
p457
I454
sVm.0n4c1q5
p458
I455
sVm.04_bsn_
p459
I456
sVm.0w49yj9
p460
I457
sVm.09g6spb
p461
I458
sVm.0y7myv_
p462
I459
sVm.05sjt9
p463
I460
sVm.0v1krs4
p464
I461
sVm.083tk
p465
I462
sVm.06wdh
p466
I463
sVm.036zx6
p467
I464
sVm.0_qyklx
p468
I465
sVm.07d5__
p469
I466
sVm.031fsz
p470
I467
sVm.0g_p9q
p471
I1095
sVm.03f6h5
p472
I469
sVm.0y58bb1
p473
I470
sVm.0c3z_lj
p474
I471
sVm.0y5_cq2
p475
I472
sVm.0gg6bz9
p476
I473
sVm.03j41z5
p477
I474
sVm.0jg5_
p478
I475
sVm.0_qykl4
p479
I476
sVm.0fqbs6
p480
I477
sVm.0tkv02d
p481
I478
sVm.0ddt_
p482
I479
sVm.0y912l1
p483
I480
sVm.07scgk6
p484
I481
sVm.0zfnr6r
p485
I482
sVm.0y5mftv
p486
I483
sVm.02ppm4q
p487
I484
sVm.0h7nlrl
p488
I485
sVm.0bbbpdn
p489
I486
sVm.0hzq9vf
p490
I487
sVm.0240dj
p491
I488
sVm.0tl4lf_
p492
I489
sVm.0d7nzc
p493
I3012
sVm.0y7zsdm
p494
I491
sVm.0gvj2
p495
I492
sVm.0ycqh0q
p496
I493
sVm.012fvc
p497
I1097
sVm.04ldj71
p498
I495
sVm.0y7vvb8
p499
I3069
sVm.0yhrr4g
p500
I497
sVm.0y7nb0d
p501
I498
sVm.09m6kg
p502
I499
sVm.026wvfz
p503
I500
sVm.04drzwy
p504
I501
sVm.0hhqh5c
p505
I502
sVm.0vx6bj4
p506
I503
sVm.06wb5f9
p507
I504
sVm.01fggg
p508
I505
sVm.0bvd47l
p509
I506
sVm.0jrxx
p510
I507
sVm.0hhxk79
p511
I508
sVm.0bd5t97
p512
I509
sVm.0n3v2lw
p513
I510
sVm.0hhxk7_
p514
I511
sVm.0gy05
p515
I512
sVm.06d5w5
p516
I513
sVm.02hwvvh
p517
I514
sVm.0hhxk7j
p518
I515
sVm.0hhxk7s
p519
I516
sVm.0bvpvym
p520
I517
sVm.0c0mt8
p521
I518
sVm.0cvhgm4
p522
I519
sVm.0j1d0y3
p523
I1113
sVm.05tg3
p524
I520
sVm.040njc
p525
I1103
sVm.0y7n6c2
p526
I522
sVm.0y7n0hq
p527
I523
sVm.0b6zw7_
p528
I524
sVm.04crky7
p529
I525
sVm.0nfkwch
p530
I526
sVm.0t510rm
p531
I3252
sVm.01z11m4
p532
I528
sVm.0v8yd5l
p533
I529
sVm.02kvpf
p534
I530
sVm.0yhrw9g
p535
I531
sVm.0v9n5l_
p536
I532
sVm.0z456ff
p537
I533
sVm.0zfn5qg
p538
I3279
sVm.04st6h7
p539
I535
sVm.0yhswf6
p540
I536
sVm.0gfpfwf
p541
I537
sVm.059l29
p542
I538
sVm.01b8vz
p543
I539
sVm.025_5c
p544
I540
sVm.02m2hd
p545
I541
sVm.0vptfhs
p546
I542
sVm.02qdv66
p547
I543
sVm.0ppgs19
p548
I3064
sVm.0yht2h7
p549
I545
sVm.043zbcj
p550
I546
sVm.0yhqj6x
p551
I547
sVm.0yj6gdm
p552
I3348
sVm.0gwdh2z
p553
I549
sVm.02yqk8
p554
I550
sVm.0gwdh2k
p555
I551
sVm.03h4fq7
p556
I3378
sVm.0vb37qw
p557
I553
sVm.0yhsdcs
p558
I554
sVm.0j_wv4w
p559
I555
sVm.02wyccb
p560
I556
sVm.0j_kmnc
p561
I557
sVm.0f6c24
p562
I558
sVm.0j_kmnl
p563
I559
sVm.0pc704d
p564
I560
sVm.01f3p_
p565
I561
sVm.0gwdh24
p566
I562
sVm.02rmn9t
p567
I563
sVm.03d2ql
p568
I564
sVm.0ch3dxb
p569
I565
sVm.0nhfsz6
p570
I566
sVm.0g_tb
p571
I567
sVm.04cl1
p572
I568
sVm.01wgfp6
p573
I569
sVm.0j_kmn4
p574
I570
sVm.02_381k
p575
I571
sVm.0yht3j9
p576
I572
sVm.05_bhx
p577
I573
sVm.0g0cbwt
p578
I3462
sVm.02_381y
p579
I575
sVm.0y62rgj
p580
I1112
sVm.0ydy0x4
p581
I577
sVm.02_381r
p582
I578
sVm.0v3xzb3
p583
I579
sVm.0gc6tm0
p584
I580
sVm.0361y8
p585
I581
sVm.0y7nhf9
p586
I582
sVm.02q0mkd
p587
I583
sVm.0n4g1dj
p588
I3510
sVm.0yj6trj
p589
I585
sVm.043tvp3
p590
I586
sVm.02r54vb
p591
I587
sVm.0d8jq5
p592
I588
sVm.0h5w7f
p593
I589
sVm.0hgrxyh
p594
I590
sVm.0dxwn5
p595
I591
sVm.05f5z60
p596
I592
sVm.0yj83_h
p597
I593
sVm.0y83srs
p598
I2071
sVm.0b7c5j
p599
I595
sVm.021ynn2
p600
I596
sVm.0cw3yd
p601
I597
sVm.020h2c
p602
I598
sVm.02rx2m5
p603
I599
sVm.0vvh7hs
p604
I600
sVm.0fkfk
p605
I601
sVm.08wxypv
p606
I602
sVm.04j2qhy
p607
I603
sVm.0pbxm06
p608
I1115
sVm.0qcr0
p609
I605
sVm.06cpd9
p610
I606
sVm.0f87jy
p611
I607
sVm.0zfnmmp
p612
I608
sVm.04j23fd
p613
I609
sVm.0b_kbm_
p614
I610
sVm.0y5htdr
p615
I611
sVm.02k84vj
p616
I612
sVm.05by20
p617
I613
sVm.026nwn_
p618
I614
sVm.0b6d3kn
p619
I615
sVm.0y5htdf
p620
I616
sVm.047fl2l
p621
I617
sVm.0pbxhnm
p622
I618
sVm.019f74
p623
I619
sVm.04d646
p624
I620
sVm.0kt1ytn
p625
I621
sVm.0gwc3bw
p626
I5811
sVm.0bdwft
p627
I2590
sVm.01r3jqc
p628
I622
sVm.0ddb4zk
p629
I623
sVm.0y5ht1y
p630
I624
sVm.02_p0
p631
I625
sVm.0w2shrg
p632
I626
sVm.05pd9lb
p633
I627
sVm.0y5ht1h
p634
I628
sVm.0d3n58
p635
I629
sVm.0hqf9tz
p636
I630
sVm.0bbct5
p637
I631
sVm.0hqf9tr
p638
I632
sVm.01xs04m
p639
I633
sVm.0nt6b
p640
I634
sVm.0hqf9tj
p641
I635
sVm.05pc3g
p642
I636
sVm.047fwk2
p643
I637
sVm.0tm614_
p644
I638
sVm.0y5c35j
p645
I639
sVm.09g7vfw
p646
I640
sVm.0vmyfm9
p647
I641
sVm.0pc729r
p648
I642
sVm.07l5vk
p649
I643
sVm.0y7vt70
p650
I644
sVm.01xs047
p651
I645
sVm.06g4t8f
p652
I646
sVm.0fbvkh
p653
I647
sVm.0q9b0
p654
I648
sVm.020hj1
p655
I649
sVm.0y851qk
p656
I650
sVm.0792c_
p657
I651
sVm.02p87jt
p658
I652
sVm.0kpzy
p659
I653
sVm.0vmyf88
p660
I654
sVm.0c3v3ws
p661
I655
sVm.09zc2c_
p662
I656
sVm.05yr5k5
p663
I657
sVm.04j0d14
p664
I658
sVm.0121v8d7
p665
I659
sVm.04mymgw
p666
I660
sVm.01zj_l4
p667
I661
sVm.0pc74pn
p668
I662
sVm.0ynx29_
p669
I663
sVm.06w99h3
p670
I664
sVm.0chqpy
p671
I665
sVm.06ztwhx
p672
I666
sVm.0yvc5c5
p673
I667
sVm.07kkf4
p674
I668
sVm.0wg6gx6
p675
I669
sVm.0278y83
p676
I670
sVm.03s0c
p677
I671
sVm.0b4qqz
p678
I672
sVm.070pcg
p679
I673
sVm.0275h3n
p680
I674
sVm.0yhrt7s
p681
I675
sVm.04j1zpf
p682
I676
sVm.02wwmhc
p683
I677
sVm.04yk_38
p684
I678
sVm.0bkdcmp
p685
I679
sVm.02ryz24
p686
I680
sVm.0252jwv
p687
I4027
sVm.05bxwh
p688
I682
sVm.07ng6
p689
I683
sVm.0vb3b2v
p690
I684
sVm.0dgnsft
p691
I685
sVm.01k5y0
p692
I686
sVm.0y84qg6
p693
I687
sVm.02q2w51
p694
I688
sVm.015lwh
p695
I689
sVm.01_fjr
p696
I690
sVm.0331mr
p697
I691
sVm.02w7c9c
p698
I692
sVm.0wyg9zn
p699
I693
sVm.0w49zfv
p700
I694
sVg.1215pm0r
p701
I695
sVm.0pbxf3j
p702
I696
sVm.0r95p3f
p703
I697
sVm.0y8_c8h
p704
I698
sVm.07h__g
p705
I699
sVm.09rcwd
p706
I700
sVm.03h0byn
p707
I701
sVm.0kvd2g
p708
I2185
sVm.0cmc26r
p709
I702
sVm.0y7ztgl
p710
I703
sVm.03zxf4
p711
I704
sVm.02rjl8x
p712
I705
sVm.05g_c_h
p713
I706
sVm.0gxz9
p714
I707
sVm.0b71jbv
p715
I708
sVm.01y2hm2
p716
I709
sVm.0gc5r9k
p717
I710
sVm.0272jt5
p718
I711
sVm.0y83wy2
p719
I712
sVm.054kny
p720
I713
sVm.0y5mfvt
p721
I714
sVm.0vmyfp2
p722
I715
sVm.02qyp19
p723
I716
sVm.0b_kw86
p724
I717
sVm.04627gn
p725
I718
sVm.02w0lyg
p726
I719
sVm.0yq8xwb
p727
I720
sVg.11b7k0v3hq
p728
I5683
sVm.0y7nm_d
p729
I721
sVm.0281frd
p730
I722
sVm.0vbk84g
p731
I723
sVm.01bjv
p732
I724
sVm.0v1k_39
p733
I725
sVm.0b_kw8n
p734
I726
sVm.0f858v
p735
I727
sVm.0pc6_p0
p736
I728
sVm.04ydvzd
p737
I729
sVm.01hhg
p738
I730
sVm.0y7vlr3
p739
I731
sVm.0l14md
p740
I732
sVm.0y5j6rh
p741
I733
sVm.0c3z0
p742
I734
sVm.066lwhg
p743
I735
sVm.07chty8
p744
I736
sVm.0n15g8q
p745
I737
sVm.0j9knfv
p746
I738
sVm.05lwkfz
p747
I739
sVm.026650s
p748
I740
sVm.05nxmf
p749
I741
sVm.0pdkhl_
p750
I742
sVm.070vn
p751
I743
sVm.0kvjc6_
p752
I744
sVm.0gy8kv2
p753
I745
sVm.02q88q8
p754
I746
sVm.01g63y
p755
I2097
sVm.072wyq
p756
I748
sVm.0dsf7lf
p757
I749
sVm.026w_58
p758
I750
sVm.0gn2nm
p759
I2098
sVm.0w1h738
p760
I752
sVm.0y7mb0t
p761
I753
sVm.026zsg4
p762
I754
sVm.0svsm71
p763
I755
sVm.0y83tl8
p764
I756
sVm.06r1z1
p765
I112
sVm.0qfnj66
p766
I758
sVm.0y5_dr6
p767
I759
sVm.056n0f
p768
I4442
sVm.0n4gy90
p769
I761
sVm.0gl_8bh
p770
I762
sVm.0gl_8b_
p771
I763
sVm.07fbty
p772
I764
sVm.0dbgj8
p773
I765
sVm.03ywtsn
p774
I766
sVm.0zgk281
p775
I767
sVm.0p75g3y
p776
I768
sVm.0b22w
p777
I769
sVm.0pbxk_6
p778
I770
sVm.040zc7y
p779
I771
sVm.06yv1n
p780
I772
sVm.0y7n9g8
p781
I773
sVm.0zfn5sl
p782
I774
sVm.0jwbdsn
p783
I775
sVg.122zq6r0
p784
I776
sVm.03x42
p785
I777
sVm.0290ngj
p786
I778
sVm.04p86b_
p787
I779
sVm.0pbxh20
p788
I117
sVm.0pvms
p789
I781
sVm.02yx9l4
p790
I782
sVm.0tjv7qq
p791
I783
sVm.0wfk952
p792
I784
sVg.12176f_w
p793
I785
sVm.0p8g932
p794
I786
sVm.0410v4r
p795
I787
sVm.0h5sf8d
p796
I788
sVm.09vv086
p797
I789
sVm.02_3837
p798
I790
sVm.02_3831
p799
I791
sVm.0628z0
p800
I792
sVm.0g_rz
p801
I793
sVm.0nb8qh_
p802
I3530
sVm.04y966z
p803
I795
sVm.0c8kc
p804
I796
sVm.044fmy
p805
I797
sVm.02ztbm
p806
I798
sVm.0v2pqgs
p807
I799
sVm.0g_rg
p808
I800
sVm.09vv08g
p809
I801
sVm.0gc040_
p810
I802
sVm.0svsfdd
p811
I803
sVm.0h5sf83
p812
I804
sVm.02_383f
p813
I805
sVm.04dzfs7
p814
I806
sVm.09vv08q
p815
I807
sVm.0wd_chs
p816
I808
sVm.01pctb
p817
I809
sVm.0y4q7fv
p818
I3100
sVm.04g0s4f
p819
I811
sVm.04cvn9k
p820
I812
sVm.0tkrg62
p821
I813
sVm.0nvrd
p822
I814
sVm.027rkbd
p823
I815
sVm.0y6hhg3
p824
I816
sVm.027hyhb
p825
I817
sVm.078h3lr
p826
I818
sVm.0d_nyy
p827
I819
sVm.0bb0pbs
p828
I820
sVm.0w2d8yj
p829
I821
sVm.0v1kwhz
p830
I822
sVm.01_srz
p831
I823
sVm.0bmcv2
p832
I824
sVm.0y7nbzg
p833
I825
sVm.0y8zqm5
p834
I827
sVg.1213tsw3
p835
I828
sVm.0bz3jx
p836
I5077
sVm.025v3rr
p837
I830
sVm.0y90wb0
p838
I831
sVm.0svr6m7
p839
I832
sVm.0fb_xj
p840
I833
sVm.0zfnf3j
p841
I834
sVm.026nj0k
p842
I835
sVm.0h0z9l9
p843
I836
sVm.0gwdh0y
p844
I837
sVm.05vjnk
p845
I838
sVm.01xq8v
p846
I839
sVm.08cgry
p847
I840
sVm.027cyf7
p848
I841
sVm.03m3j
p849
I842
sVm.03ntmq0
p850
I843
sVm.01x_w5
p851
I4893
sVm.04092pf
p852
I845
sVm.02pbcr
p853
I846
sVm.0yhsxln
p854
I847
sVm.02_3phk
p855
I848
sVm.020gps
p856
I4923
sVm.0gbpmc9
p857
I850
sVm.05229c_
p858
I851
sVm.0gwys7m
p859
I852
sVm.0y53m14
p860
I853
sVm.0wyd_ty
p861
I854
sVm.0cl9f3z
p862
I855
sVm.081x85
p863
I856
sVm.025xwf1
p864
I857
sVm.02hvnfb
p865
I858
sVm.0y5wl36
p866
I859
sVm.0y5ht7p
p867
I860
sVm.06d08h
p868
I861
sVm.0h1phss
p869
I862
sVm.02jkkv
p870
I863
sVm.0d56x3
p871
I4984
sVm.0h294xm
p872
I4992
sVm.0hhgh69
p873
I866
sVm.01qzml
p874
I867
sVm.0y5c6ds
p875
I868
sVm.02k84t8
p876
I869
sVm.011n49w3
p877
I870
sVm.0gft123
p878
I871
sVm.0z44zg8
p879
I872
sVm.0pc780j
p880
I873
sVm.0pc72dp
p881
I874
sVm.0dlkhvv
p882
I875
sVm.027329r
p883
I876
sVm.0w2sx8x
p884
I877
sVm.02dk5q
p885
I1391
sVm.0gvw4q
p886
I879
sVm.0fllsd
p887
I880
sVm.0p8fpp7
p888
I1893
sVm.0vmyf6g
p889
I882
sVm.0wsr
p890
I883
sVm.02h76fz
p891
I5050
sVm.02w16f0
p892
I885
sVm.05lwpjy
p893
I886
sVm.01xpx__
p894
I887
sVm.03fhp1
p895
I888
sVm.07cgsg_
p896
I889
sVm.05yr7sl
p897
I5093
sVm.04ppf5
p898
I891
sVm.01bwr
p899
I892
sVm.059k85
p900
I893
sVm.02z51
p901
I894
sVm.0y5bxh2
p902
I895
sVm.0bdwfqj
p903
I896
sVm.05vqwx
p904
I897
sVm.0w1y206
p905
I898
sVm.01srh1
p906
I899
sVm.026nybb
p907
I900
sVm.0tl39f4
p908
I901
sVm.0h2vkt0
p909
I902
sVm.02pk1wg
p910
I903
sVm.0svr7rn
p911
I904
sVm.04ykgv1
p912
I905
sVm.0p8ftl8
p913
I906
sVm.0f22zn
p914
I907
sVm.05q4xvx
p915
I908
sVm.042_h5
p916
I909
sVm.0wyqxhp
p917
I910
sVm.05h23xj
p918
I911
sVm.0gc2r24
p919
I912
sVm.0w49zh2
p920
I913
sVm.06w1_k4
p921
I914
sVm.0h2_6d0
p922
I915
sVm.02h_fv1
p923
I5286
sVm.04mz4
p924
I917
sVm.05lwmm_
p925
I5305
sVm.0dh98
p926
I919
sVm.05hk22
p927
I920
sVm.09vhtl
p928
I921
sVm.0h269zn
p929
I922
sVm.089pwh
p930
I923
sVm.0342h
p931
I924
sVm.0z455lj
p932
I925
sVm.049kmb
p933
I926
sVm.02rplhm
p934
I927
sVm.0f49bs
p935
I928
sVm.098tmk
p936
I2120
sVm.0y5mg6d
p937
I930
sVm.02h_fvt
p938
I931
sVm.0v3bg_b
p939
I932
sVm.0swp3jm
p940
I933
sVm.0y5mg6p
p941
I934
sVm.05psqzd
p942
I935
sVm.0pbxm6_
p943
I936
sVm.0h2bh5r
p944
I937
sVm.0273g5j
p945
I938
sVm.0gcxmjp
p946
I939
sVm.0gyw0rq
p947
I940
sVm.04j1b7x
p948
I941
sVm.026nbzy
p949
I942
sVm.0_lpkk0
p950
I5105
sVm.0gygtxg
p951
I944
sVm.01jlsn
p952
I945
sVm.0vmydxq
p953
I946
sVm.063y9fp
p954
I947
sVm.01gkgk
p955
I948
sVm.05sr4yj
p956
I949
sVm.0yvc4bs
p957
I950
sVm.0gkxx_0
p958
I5435
sVm.062pyl
p959
I952
sVm.0yd_gt3
p960
I953
sVm.0220dt
p961
I954
sVm.0p8gp1w
p962
I955
sVm.0vvh124
p963
I956
sVm.0h_f97h
p964
I957
sVm.0y5wv_t
p965
I958
sVm.0yctjzv
p966
I960
sVm.0y85s_9
p967
I961
sVm.0y911bn
p968
I962
sVm.04dr_8_
p969
I963
sVm.01lgj0
p970
I964
sVm.06274j
p971
I965
sVm.02rj6j
p972
I966
sVm.0gvf0
p973
I967
sVm.0yhsl6c
p974
I968
sVm.04f8ttb
p975
I969
sVm.0zz4ncc
p976
I970
sVm.05sr4y0
p977
I971
sVm.0y5mgnr
p978
I972
sVm.04bsc
p979
I973
sVm.064_8sq
p980
I974
sVm.0f248k
p981
I975
sVm.0yhsgzq
p982
I976
sVm.0v0k_nf
p983
I977
sVm.026535j
p984
I978
sVm.0yr4
p985
I979
sVm.05rsc_
p986
I980
sVm.07037s
p987
I981
sVm.0nfljp9
p988
I982
sVm.010bn945
p989
I983
sVm.0cs3qsr
p990
I984
sVm.0y5mgn4
p991
I985
sVm.0svr8_r
p992
I986
sVm.02qr3k8
p993
I987
sVm.0vx6bnx
p994
I988
sVm.0j1gsm3
p995
I989
sVm.068gzr
p996
I990
sVg.121fx3m2
p997
I991
sVm.027g6wt
p998
I992
sVm.0hcdwm3
p999
I993
sVm.0y85n_1
p1000
I3129
sVm.05zr1l
p1001
I5116
sVm.027fgcb
p1002
I996
sVm.0_v28zc
p1003
I997
sVm.0gkhc09
p1004
I998
sVm.01m69
p1005
I999
sVm.0wpqcmf
p1006
I1000
sVm.0w4bfxs
p1007
I1001
sVm.027b9k6
p1008
I1002
sVm.0l_br
p1009
I1003
sVm.07zmp_r
p1010
I2127
sVm.0pbxpw2
p1011
I1005
sVm.0pc6zy4
p1012
I1006
sVm.07yrkj
p1013
I1007
sVm.0h94gg0
p1014
I1008
sVm.0hcdwms
p1015
I1009
sVm.03_nrc
p1016
I1010
sVm.01vty
p1017
I1011
sVm.027nms4
p1018
I1012
sVm.0hcdwmb
p1019
I1013
sVm.0gfpfsm
p1020
I1014
sVm.0hcdwmk
p1021
I1015
sVm.07t721n
p1022
I1016
sVm.0hcdwm_
p1023
I1017
sVm.0y7nkw8
p1024
I1018
sVm.01fs__
p1025
I1019
sVm.0275pjz
p1026
I2008
sVm.02qv_xc
p1027
I1020
sVm.0vmyd_x
p1028
I1021
sVm.0ydxsnh
p1029
I1022
sVm.027yjwq
p1030
I1023
sVm.0yj7p34
p1031
I1024
sVm.0yhsd49
p1032
I1025
sVm.06cnp
p1033
I1026
sVm.05n1_9
p1034
I1027
sVm.0645k5
p1035
I1028
sVm.0h9812d
p1036
I5120
sVm.026h_rr
p1037
I1030
sVm.0dr9dc
p1038
I1031
sVm.024pcx
p1039
I1032
sVm.0fqd1j
p1040
I1033
sVg.11b7g523x9
p1041
I1035
sVm.0yhsylj
p1042
I1036
sVm.09tb_f6
p1043
I1037
sVm.0jtpk5
p1044
I1038
sVm.02r6x32
p1045
I98
sVm.035w2k
p1046
I1040
sVm.0nvt9
p1047
I1041
sVm.0yhrsd_
p1048
I1042
sVm.0w9hhc4
p1049
I1043
sVm.0jzc
p1050
I1044
sVm.080p93d
p1051
I1045
sVm.09tb_fd
p1052
I1046
sVm.02xlh4_
p1053
I1047
sVm.028kj0
p1054
I1048
sVm.03k9l5
p1055
I1049
sVm.03gfzpd
p1056
I1050
sVm.02pm8zp
p1057
I1051
sVm.0ypzddl
p1058
I1052
sVm.03fk2x
p1059
I1053
sVm.0n49ndr
p1060
I1054
sVm.07cgvf0
p1061
I1055
sVm.02xlh4t
p1062
I1056
sVm.0ydxwbf
p1063
I1057
sVm.01shy7
p1064
I1058
sVm.06wp60
p1065
I1059
sVm.0glzmj8
p1066
I1060
sVm.0p91_v0
p1067
I1061
sVm.0glzmj2
p1068
I1062
sVm.02xlh4f
p1069
I1063
sVm.0y5ht5g
p1070
I1064
sVm.05srj40
p1071
I1065
sVm.0w0qchd
p1072
I1066
sVm.010bnbby
p1073
I1067
sVm.0b1g2
p1074
I1068
sVm.0dcqhv
p1075
I1069
sVm.0yvlk0t
p1076
I1070
sVm.01xlqd
p1077
I5761
sVm.020v4s
p1078
I1071
sVm.0vb3gl4
p1079
I1072
sVm.0v1k99k
p1080
I1073
sVm.01z025w
p1081
I277
sVm.01z025p
p1082
I1075
sVm.03y317
p1083
I1076
sVm.0w4bhk4
p1084
I1077
sVm.07rgn
p1085
I1078
sVm.0gfl2v7
p1086
I1079
sVm.0hc976w
p1087
I1080
sVm.0_r880t
p1088
I1081
sVm.0vx5n44
p1089
I1082
sVm.0vbk8hy
p1090
I1083
sVm.0djk_l
p1091
I1084
sVm.015dmm
p1092
I1085
sVm.089_x
p1093
I1086
sVm.047qxs
p1094
I1087
sVm.011j_6wm
p1095
I3344
sVm.019nnl
p1096
I442
sVm.03czpwm
p1097
I1090
sVm.0p9r48q
p1098
I1091
sVm.0svr7p1
p1099
I1092
sVm.0z4nbpt
p1100
I1093
sVm.01xljq9
p1101
I1094
sVm.05fjf
p1102
I468
sVm.02jy7w
p1103
I3149
sVm.04jhply
p1104
I494
sVm.05lww8b
p1105
I1098
sVm.0ds3t5x
p1106
I1099
sVm.0j1d0yb
p1107
I1100
sVm.02t5kb
p1108
I1101
sVm.010fbxp2
p1109
I1102
sVm.05pcjw
p1110
I521
sVm.0y84_fr
p1111
I1104
sVm.0f6bsr
p1112
I1105
sVm.04fnrj3
p1113
I1106
sVm.0kg2sg5
p1114
I1107
sVm.09n0nb
p1115
I1108
sVm.0v1kzy6
p1116
I1109
sVm.070fyj
p1117
I1110
sVm.0bnmtvn
p1118
I1111
sVm.02lpp7
p1119
I576
sVm.06r7q0
p1120
I1674
sVm.0gc45kf
p1121
I1114
sVm.0ng4tdd
p1122
I604
sVm.0wz9v9n
p1123
I1116
sVm.027019
p1124
I1117
sVm.0h6yht_
p1125
I1118
sVm.0y5mg45
p1126
I1119
sVm.0cm0b77
p1127
I1120
sVm.0fdhls6
p1128
I1121
sVm.010pd7hh
p1129
I1122
sVm.07t2k
p1130
I1123
sVm.0z455nq
p1131
I1124
sVm.094vt7
p1132
I1125
sVm.0h0zqr3
p1133
I1126
sVm.09vhrw
p1134
I1127
sVm.0y853_j
p1135
I1128
sVm.0cm0b7l
p1136
I1129
sVm.04hyh27
p1137
I1130
sVm.0wfk8xz
p1138
I1131
sVm.01vky1
p1139
I1132
sVm.0y7nlq1
p1140
I1133
sVm.0cm0b7y
p1141
I1134
sVm.09xrbd
p1142
I1135
sVm.0j63x3_
p1143
I1136
sVm.0y7zq7s
p1144
I1137
sVm.0glhxv3
p1145
I1138
sVm.0gynx
p1146
I1139
sVm.05swyd9
p1147
I1140
sVm.0273rqs
p1148
I1141
sVm.0w49zj3
p1149
I1142
sVm.0p18y_6
p1150
I1143
sVm.02x4p6l
p1151
I1144
sVm.0gxbgf4
p1152
I1145
sVm.0cl9f33
p1153
I1146
sVm.09d1y6
p1154
I1147
sVm.0y8522q
p1155
I1148
sVm.0h5scp5
p1156
I3156
sVm.0337wr
p1157
I1150
sVm.04627ct
p1158
I1151
sVm.04627cf
p1159
I1152
sVm.0d1_bp
p1160
I1153
sVm.0gxbgfp
p1161
I1154
sVm.0cl9f3p
p1162
I1155
sVm.0yd_86c
p1163
I1156
sVm.01xryvm
p1164
I1157
sVm.0yhszsv
p1165
I1158
sVm.0cl9f3d
p1166
I1159
sVm.07cgfkb
p1167
I1160
sVm.02t86hn
p1168
I1161
sVm.026cx1z
p1169
I1162
sVm.04627c1
p1170
I1163
sVm.0d8f9j
p1171
I1164
sVm.0p8h0qm
p1172
I1165
sVm.0yht478
p1173
I1166
sVm.0c02_hd
p1174
I1167
sVm.05bvl9
p1175
I1168
sVm.02pjbkp
p1176
I1169
sVm.01n8hp
p1177
I1170
sVm.06xt1y
p1178
I1171
sVm.02lk38
p1179
I1172
sVm.0c6s0k
p1180
I1173
sVm.0h0yy3d
p1181
I1174
sVm.0vmybp_
p1182
I1175
sVm.01n6c
p1183
I3164
sVm.063_rt1
p1184
I1177
sVm.0tl4kvl
p1185
I1178
sVm.0ztfxbv
p1186
I1179
sVm.0svr78p
p1187
I1180
sVm.0kt1yxb
p1188
I180
sVm.02xlf
p1189
I1182
sVm.06r6r_
p1190
I1183
sVm.0y7vvh4
p1191
I1184
sVm.058w6c
p1192
I1185
sVm.09s4pt
p1193
I1186
sVm.02hxrj2
p1194
I1187
sVm.01_5gm
p1195
I1188
sVm.0dj9zyb
p1196
I1189
sVm.05v51s5
p1197
I1190
sVm.0ghbzyy
p1198
I1191
sVm.0yhsllk
p1199
I1192
sVm.0cv7_95
p1200
I1193
sVm.0sxmx
p1201
I1194
sVm.02kl65h
p1202
I1195
sVm.035jph
p1203
I2444
sVm.0mjn2
p1204
I1196
sVm.028rk
p1205
I1197
sVm.01kgrx
p1206
I1198
sVm.032f6
p1207
I1199
sVm.010gpwdw
p1208
I1200
sVm.0y5mglk
p1209
I1201
sVm.099_9p
p1210
I1202
sVm.0646yz
p1211
I1203
sVm.0y5mglw
p1212
I1204
sVm.0y4q72m
p1213
I5143
sVm.0f3zgq
p1214
I1206
sVm.03896
p1215
I1207
sVm.04cylm_
p1216
I1208
sVm.0vx5kg2
p1217
I1209
sVm.0cm0b6z
p1218
I1210
sVm.0yhqgxq
p1219
I1211
sVm.0bvhs4p
p1220
I1212
sVm.0h2jy9p
p1221
I1213
sVm.01_7scw
p1222
I1214
sVm.026kr0k
p1223
I1215
sVm.0y85lgb
p1224
I1216
sVm.0ycrc_x
p1225
I1217
sVm.04frkc
p1226
I1300
sVm.07nfs8n
p1227
I1219
sVm.03m8y5
p1228
I1220
sVm.0cygsrz
p1229
I1221
sVm.078m6t
p1230
I1222
sVm.02nwml_
p1231
I1223
sVm.04xg8sl
p1232
I1224
sVg.121v85j3
p1233
I1225
sVm.0yd_4jc
p1234
I1226
sVm.03q5db
p1235
I1227
sVm.06n3y
p1236
I3599
sVm.0djzv9_
p1237
I1229
sVm.0bmssv
p1238
I1230
sVm.0134d9mx
p1239
I1231
sVm.0gwdh48
p1240
I1232
sVm.0y5bxql
p1241
I1233
sVm.04g0027
p1242
I1234
sVm.0z447bn
p1243
I1235
sVm.057_66
p1244
I1236
sVm.0yhryln
p1245
I1237
sVm.09tb_dv
p1246
I1238
sVm.0270lc6
p1247
I1239
sVm.0gwdh4w
p1248
I1240
sVm.014kpr
p1249
I1241
sVm.09tb_dg
p1250
I1242
sVm.03njdv
p1251
I1243
sVm.0y7n06r
p1252
I1244
sVm.09tb_dn
p1253
I1245
sVm.05ynsz
p1254
I1246
sVm.0gky0pl
p1255
I1247
sVm.0fhmp5
p1256
I1248
sVm.0hfzr
p1257
I1249
sVm.02rzr4
p1258
I1250
sVm.04cj79
p1259
I1251
sVm.01l3qrd
p1260
I1252
sVm.0p8fh2_
p1261
I1253
sVm.0crhc6t
p1262
I1254
sVeducation.school
p1263
I1255
sVm.0y5c6vl
p1264
I5152
sVm.0639bg
p1265
I1257
sVm.05sytg
p1266
I1258
sVm.065mvrb
p1267
I1259
sVm.080_x_
p1268
I1538
sVm.0pc742w
p1269
I1261
sVm.0y8_4ll
p1270
I1262
sVm.0w2shty
p1271
I1263
sVm.02r5f8p
p1272
I1264
sVm.0zfnk09
p1273
I1265
sVm.07m164v
p1274
I1266
sVm.0y83szz
p1275
I1267
sVm.0glzmht
p1276
I1595
sVm.0y7nphb
p1277
I1269
sVm.0glzmhq
p1278
I1270
sVm.0yhsw00
p1279
I1271
sVm.09k5k
p1280
I1272
sVm.0glzmhx
p1281
I1273
sVm.0465y52
p1282
I1274
sVm.0h5jyc6
p1283
I1275
sVm.051l_6g
p1284
I1276
sVm.0c01vfc
p1285
I1277
sVm.0y8z7xn
p1286
I1278
sVm.0p18zgd
p1287
I1279
sVm.0p136qw
p1288
I1280
sVm.0dgbf8m
p1289
I1281
sVm.0bd61gp
p1290
I1282
sVm.0cm0b69
p1291
I4150
sVm.0hh62j3
p1292
I1284
sVm.07ssc
p1293
I1285
sVm.0pbxlt6
p1294
I1286
sVm.0gfl2tp
p1295
I1287
sVm.02pk0sd
p1296
I1288
sVm.025rvx0
p1297
I1289
sVm.02qydsh
p1298
I1290
sVm.03w9ln
p1299
I1291
sVm.01xryxh
p1300
I1708
sVm.0vmyf26
p1301
I1293
sVm.01tzslx
p1302
I1294
sVm.0gbx6_9
p1303
I1295
sVm.0dgbf88
p1304
I1296
sVm.019dzd
p1305
I1297
sVm.0cj62_
p1306
I1298
sVm.0y7n4jl
p1307
I1299
sVm.0h2vkpv
p1308
I1733
sVm.0y5c59k
p1309
I1301
sVm.0gwn3n6
p1310
I1302
sVm.025yw50
p1311
I1303
sVm.02pskf_
p1312
I1304
sVm.04fnrhx
p1313
I1305
sVm.096gqt
p1314
I1306
sVm.0t5wtb7
p1315
I1307
sVm.039cf6
p1316
I1308
sVm.026nsdq
p1317
I1765
sVm.0gbypcc
p1318
I1310
sVm.0z45gqd
p1319
I1311
sVm.0y7m_8_
p1320
I2198
sVm.052bs6
p1321
I1313
sVm.0b1c19
p1322
I1314
sVm.0nbx3hf
p1323
I1316
sVm.0svr86m
p1324
I1317
sVm.0p8glwy
p1325
I1821
sVm.0pc7d1v
p1326
I1319
sVm.0svr7vj
p1327
I1320
sVm.02nsjvf
p1328
I1321
sVm.0p8g2xk
p1329
I1322
sVm.02hwf7y
p1330
I1323
sVm.0gtxbqr
p1331
I1324
sVm.0bchhw
p1332
I1325
sVm.0268yvg
p1333
I1326
sVm.01xrznl
p1334
I1327
sVm.0y5_cyw
p1335
I1328
sVm.0vb3b8y
p1336
I1329
sVm.05gk8ph
p1337
I2338
sVm.0f71r8
p1338
I1330
sVm.0g5r69
p1339
I1331
sVm.063fh9
p1340
I1332
sVm.0w49ybf
p1341
I1333
sVm.0pbxp3m
p1342
I1334
sVm.0gzf3
p1343
I1335
sVm.0h1t0w
p1344
I1336
sVm.01qxc7
p1345
I4155
sVm.0pbxm2r
p1346
I1338
sVm.0vx69bm
p1347
I1339
sVg.121_4f1c
p1348
I1340
sVm.0cm0b5q
p1349
I1341
sVm.0y58kxy
p1350
I1342
sVm.02h_frd
p1351
I1343
sVm.0y5c5lw
p1352
I1344
sVm.0bnx92
p1353
I1345
sVm.0gypv
p1354
I1346
sVm.0cm0b5_
p1355
I1347
sVm.02rq8k8
p1356
I1348
sVm.02h_fr_
p1357
I1969
sVm.08krqv
p1358
I1350
sVm.05swyf1
p1359
I1351
sVm.012dbw
p1360
I1352
sVm.0wpq8br
p1361
I1353
sVm.04typ31
p1362
I1354
sVm.02prl2n
p1363
I1355
sVm.03hx9c7
p1364
I1356
sVm.0b4nb8
p1365
I1357
sVm.027znpz
p1366
I1358
sVm.0tl3kc2
p1367
I1359
sVm.04g1ntm
p1368
I1360
sVm.0521f5n
p1369
I1361
sVm.01r5x5
p1370
I1362
sVm.0v9n674
p1371
I2023
sVm.07ry68v
p1372
I1364
sVm.02xhkvz
p1373
I1365
sVm.0dknrx
p1374
I1366
sVm.06ly8_
p1375
I2038
sVm.0p18hvg
p1376
I1368
sVm.01y2hcq
p1377
I1369
sVm.0ljff3c
p1378
I2054
sVm.0g4bct
p1379
I1371
sVm.04jkp0r
p1380
I1372
sVm.07by0n
p1381
I1373
sVm.024mxd
p1382
I2089
sVm.08ywzc
p1383
I1375
sVm.012y5v
p1384
I1376
sVm.09tb_d8
p1385
I1228
sVm.035s95
p1386
I1378
sVm.0765h3
p1387
I1380
sVm.02q1njr
p1388
I1381
sVm.0yhssbv
p1389
I1382
sVm.0nhfx11
p1390
I1383
sVm.0wpq31c
p1391
I1384
sVm.0yhsmlf
p1392
I1385
sVm.0gbzpbr
p1393
I1386
sVm.07033t
p1394
I1387
sVm.071jhv
p1395
I1388
sVm.0cc3h70
p1396
I2186
sVm.0gk7g
p1397
I1390
sVm.015bpl
p1398
I1392
sVm.02x13zt
p1399
I1393
sVm.0h34n
p1400
I1394
sVm.0wpq609
p1401
I1395
sVm.0j5lhch
p1402
I1396
sVm.010sqq_d
p1403
I2249
sVm.07cf56b
p1404
I1398
sVm.0g55y4p
p1405
I1399
sVm.02qjv
p1406
I1400
sVm.0pcnv67
p1407
I1401
sVm.0jml5
p1408
I1402
sVm.02xry
p1409
I1403
sVm.0wyq5ml
p1410
I1404
sVm.0crrnvp
p1411
I1405
sVm.0pc78_y
p1412
I1406
sVm.05twtbl
p1413
I1407
sVm.01n3n3l
p1414
I2275
sVm.05zsdt
p1415
I1409
sVm.0k3lpxc
p1416
I1410
sVm.0t_9rwq
p1417
I1411
sVm.0cn2s5
p1418
I1412
sVm.05c26ss
p1419
I1413
sVm.08phg9
p1420
I1414
sVm.0v9n3f3
p1421
I1415
sVm.0yj70qz
p1422
I1416
sVm.0g3j2m
p1423
I1417
sVm.0z44cb0
p1424
I1418
sVm.0yd6cm3
p1425
I2391
sVm.09v0x21
p1426
I1420
sVm.0tktk6y
p1427
I1421
sVm.0wpq2s9
p1428
I1422
sVm.065dc4
p1429
I3206
sVm.04gk64z
p1430
I1424
sVm.0y7mtq5
p1431
I1425
sVm.0mvqz42
p1432
I1426
sVm.0yhsdkn
p1433
I1427
sVm.0by1x51
p1434
I1428
sVm.01flv_
p1435
I1429
sVm.04r9kj
p1436
I1430
sVm.0yhrv0k
p1437
I1431
sVm.0y852xp
p1438
I1432
sVm.0k00l_5
p1439
I1433
sVm.0f4nt1
p1440
I1434
sVm.04ygjd3
p1441
I1435
sVm.04247r
p1442
I1436
sVm.0bvhs6h
p1443
I1437
sVm.05t2131
p1444
I1438
sVm.018jz
p1445
I1440
sVm.07w517
p1446
I1441
sVm.0t_yl0p
p1447
I1442
sVm.0y7n9my
p1448
I1443
sVm.0c082
p1449
I1444
sVm.0v29ffg
p1450
I1445
sVm.0svr6st
p1451
I1446
sVm.01frx5
p1452
I1447
sVm.04ls66
p1453
I1448
sVm.0t_kg86
p1454
I1449
sVm.0krnwbs
p1455
I1450
sVm.0522tyq
p1456
I1451
sVm.0tkrx7j
p1457
I1452
sVm.01vt0hg
p1458
I1453
sVm.0y7nhnx
p1459
I1454
sVm.051179
p1460
I1455
sVm.0gl_8g2
p1461
I3216
sVm.0cj5p11
p1462
I1456
sVm.0fghyr
p1463
I1457
sVm.0hdxxg9
p1464
I1458
sVm.0cj5p19
p1465
I1459
sVm.01w76rt
p1466
I1460
sVm.0crscqh
p1467
I1461
sVm.0bcs_f
p1468
I1462
sVm.017gm7
p1469
I1463
sVm.0bptdz
p1470
I2636
sVm.047b0wh
p1471
I1465
sVm.0cj5p1k
p1472
I1466
sVm.0y6drzb
p1473
I1467
sVm.0w1y2r5
p1474
I1468
sVm.0cj5p1v
p1475
I1469
sVm.02rqth_
p1476
I1470
sVm.08htwh
p1477
I1471
sVm.0bc45yc
p1478
I1472
sVm.0cl9kvf
p1479
I1473
sVm.0gwc38r
p1480
I1474
sVm.0t5f4l3
p1481
I1475
sVm.0tktx4c
p1482
I1476
sVm.0y63msc
p1483
I1477
sVm.09lxv9
p1484
I3220
sVm.026_6ms
p1485
I1479
sVm.0n4l9tg
p1486
I1480
sVm.0129mg
p1487
I2716
sVm.0v9n53m
p1488
I1482
sVm.0y85kxr
p1489
I1483
sVm.014tss
p1490
I1484
sVm.09sc4mc
p1491
I1485
sVm.066b_n
p1492
I1486
sVm.04j1j0w
p1493
I1487
sVm.03cc16m
p1494
I1488
sVm.0479hxq
p1495
I1489
sVm.067v28
p1496
I1490
sVm.0pbxhf7
p1497
I1491
sVm.0bd3g7
p1498
I1492
sVm.02p72x
p1499
I1493
sVm.0y583xw
p1500
I1494
sVm.0cl9kv0
p1501
I1495
sVm.04gk9y8
p1502
I1496
sVm.01lq4n
p1503
I1497
sVm.027qh28
p1504
I1498
sVm.0yj5jkz
p1505
I1499
sVm.0d7xlr0
p1506
I1500
sVm.0d7xlr7
p1507
I1501
sVm.0vp1ws_
p1508
I1502
sVm.0clsl7
p1509
I1503
sVm.060dqj
p1510
I1504
sVm.0v9n1gd
p1511
I1505
sVm.0dln8jk
p1512
I1506
sVm.038w8
p1513
I1507
sVm.04165w
p1514
I1508
sVm.03c3vl6
p1515
I1509
sVm.0wydyd_
p1516
I1510
sVm.02x27wg
p1517
I1511
sVm.0d7xlrr
p1518
I2898
sVm.03mfnf
p1519
I1513
sVm.0d7xlrh
p1520
I1514
sVm.0d7xlr_
p1521
I1516
sVm.034qgf
p1522
I2937
sVm.0wf0k9n
p1523
I1518
sVm.0n53c0v
p1524
I1519
sVm.04t4g2
p1525
I1520
sVm.0nj_l
p1526
I1521
sVm.0b3n61
p1527
I1522
sVm.02rdmnx
p1528
I1523
sVm.0y7vlgg
p1529
I1524
sVg.121g7cqk
p1530
I1525
sVm.0y5hxxp
p1531
I1526
sVm.0vbkbwj
p1532
I1527
sVm.0rh8df6
p1533
I1528
sVm.0bt3j9
p1534
I1529
sVm.0crsyxp
p1535
I1530
sVm.0bvx96
p1536
I1531
sVm.0f8hl4
p1537
I1532
sVm.05szrx8
p1538
I1533
sVm.01srnz
p1539
I1534
sVm.0y5hxx6
p1540
I1535
sVm.0528kc
p1541
I1536
sVm.02rt2gv
p1542
I1537
sVm.0b_ly8k
p1543
I1260
sVm.0gzk5tq
p1544
I1539
sVm.0crpgp
p1545
I1540
sVm.07zsmk
p1546
I1541
sVm.09cn0c
p1547
I1542
sVm.0wpqdj0
p1548
I1543
sVm.0svr5j4
p1549
I1544
sVm.02vzw
p1550
I1545
sVm.012ngx78
p1551
I1546
sVm.04bp2b
p1552
I1547
sVm.0y83tqz
p1553
I1548
sVm.0b55ck
p1554
I1549
sVm.034cm
p1555
I1550
sVm.0yhsjwj
p1556
I1551
sVm.06r4y
p1557
I1552
sVm.0y85njh
p1558
I1553
sVm.0hgnvc3
p1559
I1554
sVm.03h0pxb
p1560
I1555
sVm.025tgs5
p1561
I1556
sVm.0w49yd9
p1562
I1557
sVm.011gmsdj
p1563
I1558
sVm.06cp4t
p1564
I1559
sVm.0y7zq3y
p1565
I1560
sVm.0gyrq
p1566
I1561
sVm.0h5plhs
p1567
I1562
sVm.0h5plhw
p1568
I1563
sVm.0z4qwk8
p1569
I1564
sVm.062psk
p1570
I1565
sVm.010hlhn6
p1571
I1566
sVm.04crzpz
p1572
I1567
sVm.0y62p6w
p1573
I1568
sVm.011ykb
p1574
I1569
sVm.0gvs1kt
p1575
I1570
sVm.0d8hzj
p1576
I1571
sVm.0pc6_xn
p1577
I1572
sVm.0h5z4pf
p1578
I1573
sVm.0jqj5
p1579
I1574
sVm.033fl0
p1580
I1575
sVm.0gxr3fh
p1581
I1577
sVm.03hfsv1
p1582
I1578
sVm.0283qr
p1583
I1579
sVm.0y85nnr
p1584
I5648
sVm.08nfbvd
p1585
I1580
sVm.0h330h9
p1586
I1581
sVm.034qzw
p1587
I1582
sVm.0y5w6hn
p1588
I1583
sVm.05h3xdf
p1589
I1584
sVm.0yhqjt5
p1590
I1585
sVm.0g4g1hc
p1591
I1586
sVm.03hk60_
p1592
I1587
sVm.06xt5p
p1593
I1588
sVm.027ctjq
p1594
I1589
sVm.04kcwrc
p1595
I1590
sVm.06xz7w
p1596
I1591
sVm.0tkrpm5
p1597
I1592
sVm.04nnqc
p1598
I1593
sVm.0y62wtx
p1599
I1594
sVm.014mjc
p1600
I1268
sVm.026t6
p1601
I1596
sVm.0yhrxkq
p1602
I1597
sVm.0f7fy
p1603
I1598
sVm.0cpllql
p1604
I1599
sVm.0d6_8r
p1605
I1600
sVm.03wbbxc
p1606
I1601
sVm.0yq3xc0
p1607
I1602
sVm.02n0tk
p1608
I1603
sVm.0y7vlz8
p1609
I1604
sVm.0tks_zf
p1610
I1605
sVm.0p8gccc
p1611
I1606
sVm.075wx7_
p1612
I1607
sVm.0pbxhym
p1613
I1608
sVm.0h948
p1614
I1609
sVm.02wx3xf
p1615
I1610
sVm.0271qq6
p1616
I1611
sVm.0cd2vh9
p1617
I1612
sVm.027dtxw
p1618
I1613
sVm.04l4q52
p1619
I1614
sVm.05sv14
p1620
I1615
sVm.0h1j6zb
p1621
I4200
sVm.0pc7073
p1622
I1617
sVm.0zn87mv
p1623
I1618
sVm.0yj80hx
p1624
I1619
sVm.0v1kq6b
p1625
I1620
sVm.0gfpmgf
p1626
I1621
sVm.047krvm
p1627
I1622
sVm.03cw7nl
p1628
I1623
sVm.011djb5_
p1629
I1624
sVm.0cs65s
p1630
I1625
sVm.0bh8tgs
p1631
I1626
sVm.0hgccv8
p1632
I3238
sVm.01wk7b7
p1633
I1628
sVm.0b6ybq
p1634
I1629
sVm.01xrrd7
p1635
I243
sVm.0svsb8d
p1636
I1631
sVm.034vk8
p1637
I1632
sVm.02d49z
p1638
I1633
sVm.0hg_67l
p1639
I1634
sVm.0z4qcb4
p1640
I1635
sVm.0y84vbd
p1641
I1636
sVm.0wdvdcn
p1642
I1637
sVm.0bh5v1y
p1643
I1638
sVm.03y7lc9
p1644
I1639
sVm.034vkz
p1645
I1640
sVm.02z2mr7
p1646
I1641
sVm.0ddhlx3
p1647
I1642
sVm.0vx70w2
p1648
I1643
sVm.02dhwl
p1649
I1644
sVm.02sg5v
p1650
I1645
sVm.02r0csl
p1651
I1646
sVm.091ckd
p1652
I1647
sVm.025jbj
p1653
I1648
sVm.07cfpfc
p1654
I1649
sVm.0y8_gbl
p1655
I1650
sVm.012n9rw5
p1656
I1651
sVm.03bqlmy
p1657
I1652
sVm.0yj677z
p1658
I1653
sVm.084qcy
p1659
I1654
sVm.0y7nbbz
p1660
I1655
sVm.03q0r1
p1661
I1656
sVm.0cj5p34
p1662
I1657
sVm.0bvz_s9
p1663
I1658
sS'm.05sys3j'
p1664
I1659
sVm.0y85m3k
p1665
I1660
sVm.0gs96
p1666
I1661
sVm.051pbxg
p1667
I1662
sVm.05rgl
p1668
I1663
sVm.01_8644
p1669
I1664
sVm.0wyfdh5
p1670
I1665
sVm.01tzr96
p1671
I1666
sVm.0b50bd
p1672
I1667
sVm.0vx6b8p
p1673
I1668
sVm.0cj5p3m
p1674
I1669
sVm.05b3ql0
p1675
I3905
sVm.0y5c3wx
p1676
I1671
sVm.0y7n97m
p1677
I1672
sVm.0z4p356
p1678
I1673
sVm.0yhykrr
p1679
I3935
sVm.0mv2b03
p1680
I1676
sVm.0c_md_
p1681
I1677
sVm.0gmkmsh
p1682
I3951
sVm.047q6l5
p1683
I1679
sVm.0glzmt3
p1684
I1680
sVm.09v1vvy
p1685
I1681
sVm.0gczjtl
p1686
I1682
sVm.0hmr4
p1687
I1683
sVm.0v1l16q
p1688
I1684
sVm.0yhsxt9
p1689
I1685
sVm.09nx23w
p1690
I1686
sVm.02r5qtm
p1691
I1687
sVm.0gyg5ct
p1692
I1688
sVm.0v1kqn_
p1693
I1689
sVm.0h4vkd
p1694
I1690
sVm.0b8n67
p1695
I1691
sVm.0cv2ql5
p1696
I1692
sVm.0k3pq
p1697
I1693
sVm.0272qdp
p1698
I1694
sVm.05r8zy
p1699
I1695
sVm.0b78444
p1700
I1696
sVm.0z5bg1h
p1701
I1697
sVm.05trb8
p1702
I1698
sVm.0h322tm
p1703
I1699
sVm.0cq7tx
p1704
I1700
sVm.03pnm8
p1705
I1701
sVm.0b74djw
p1706
I1702
sVm.0ycsyv3
p1707
I259
sVm.02w4by3
p1708
I1704
sVm.0y5wx5q
p1709
I5307
sVm.06s0cx
p1710
I1705
sVm.0dj5tgv
p1711
I1706
sVm.0g4rwc8
p1712
I1707
sVm.02t276
p1713
I1292
sVm.0bq4qln
p1714
I1709
sVm.0y4q1cz
p1715
I1710
sVm.0v8t7
p1716
I1711
sVm.0p192gh
p1717
I1712
sVm.0f1h2p
p1718
I1713
sVm.02pnlgp
p1719
I1714
sVm.0dy492
p1720
I1715
sVm.0y850g5
p1721
I1716
sVm.0d_wms
p1722
I1717
sVm.0y5hxv_
p1723
I1718
sVm.0hgxnjw
p1724
I1719
sVm.0swz_mk
p1725
I1720
sVm.0by46bs
p1726
I1721
sVm.0h5vr57
p1727
I1722
sVm.010b0wdn
p1728
I1723
sVm.0gdf96
p1729
I1724
sVm.03qp0n6
p1730
I1725
sVm.0by46b8
p1731
I1726
sVm.0479gt_
p1732
I1727
sVm.06r66
p1733
I1728
sVm.0g7f0
p1734
I1729
sVm.0yhspg0
p1735
I1730
sVm.0y8zgsp
p1736
I1731
sVm.0gp7f
p1737
I1732
sVm.027v688
p1738
I1734
sVm.033_m2
p1739
I1735
sVm.01dh6f
p1740
I1736
sVm.0v1km76
p1741
I1737
sVm.0703w3
p1742
I1738
sVm.05pdhdb
p1743
I1739
sVm.0f40w
p1744
I1740
sVm.012dn_
p1745
I1741
sVm.09wtt_
p1746
I1742
sVm.0w49yf0
p1747
I1743
sVm.0y5836x
p1748
I1744
sVm.0cqh6z
p1749
I1745
sVm.0gzc78
p1750
I1746
sVm.0dnvn3
p1751
I1747
sVm.080d5z4
p1752
I1748
sVm.03hl70g
p1753
I270
sVm.0y4xq16
p1754
I1750
sVm.0gmllx0
p1755
I1751
sVm.02__12
p1756
I1752
sVm.02q8rp2
p1757
I1753
sVm.0qzzd_7
p1758
I1754
sVm.0p8gx91
p1759
I1755
sVm.0y83x5t
p1760
I1756
sVm.0j654v3
p1761
I1757
sVm.0y78_3v
p1762
I1758
sVm.0ddfwj1
p1763
I1759
sVm.04g08x
p1764
I1760
sVm.0crv2pt
p1765
I1761
sVm.0127xnkz
p1766
I1762
sVm.09v9fw5
p1767
I1763
sVm.03y0pn
p1768
I1764
sVm.0y8_mlk
p1769
I1309
sVm.0qzzd_p
p1770
I1766
sVm.0c6rcs
p1771
I1767
sVm.01vksx
p1772
I1768
sVm.0ffl72
p1773
I1769
sVm.0y5kd7y
p1774
I1770
sVm.09vw5d8
p1775
I1771
sVm.031zk3
p1776
I1772
sVm.04kcwps
p1777
I1773
sVm.03pcvr
p1778
I1774
sVm.0y5wr6v
p1779
I4651
sVm.02prwdh
p1780
I1776
sVm.0b4gnw
p1781
I1777
sVm.042fk
p1782
I1778
sVg.1213vfbl
p1783
I1779
sVm.04f5c5
p1784
I1780
sVm.0p19wp9
p1785
I1781
sVm.06xt76
p1786
I1782
sVm.0nhh1_x
p1787
I1783
sVm.0jmh7
p1788
I1784
sVm.0y7vtsc
p1789
I1785
sVm.0y7nmcq
p1790
I275
sVm.0wyfb4j
p1791
I1787
sVm.05jxkf
p1792
I1788
sVm.0gy5xj8
p1793
I1789
sVm.0y7vtxt
p1794
I1790
sVm.042f1
p1795
I1791
sVm.0wydw4p
p1796
I1792
sVm.011jk_lj
p1797
I1793
sVm.03npky5
p1798
I3272
sVm.07ry5xt
p1799
I1795
sVm.012645
p1800
I1796
sVm.0gcg2bh
p1801
I1797
sVm.0p18ypy
p1802
I1798
sVm.0p0w_7k
p1803
I1799
sVm.0gbwr94
p1804
I1800
sVm.034nnw
p1805
I1801
sVm.01jfzm6
p1806
I1802
sVm.0gcfd4y
p1807
I1803
sVm.0fjms
p1808
I1804
sVm.01ft14
p1809
I1805
sVm.027ycwq
p1810
I1806
sVm.02v7tp
p1811
I1807
sVm.09jbn5
p1812
I1808
sVm.0b2sr1
p1813
I1809
sVm.0vvh8r0
p1814
I1810
sVm.04y8kzd
p1815
I1811
sVm.02rd77w
p1816
I1812
sVm.03yw6jk
p1817
I1813
sVm.02hvt_
p1818
I1814
sVm.09vq1l5
p1819
I1815
sVm.0z4q679
p1820
I1816
sVm.05dbcl
p1821
I1817
sVm.0gxnl85
p1822
I1818
sVm.047vp1n
p1823
I1819
sVm.04pk1f
p1824
I1820
sVm.07s6fsf
p1825
I1318
sVm.0gtwhcf
p1826
I1822
sVm.0dqtf8
p1827
I1823
sVm.05lmdm7
p1828
I1824
sVm.015z4j
p1829
I1825
sVm.0dy575
p1830
I1826
sVm.04wckj
p1831
I1827
sVm.0h24n0
p1832
I1828
sVm.03m8sg
p1833
I1829
sVm.04ktscg
p1834
I1830
sVm.0zfnf6j
p1835
I1831
sVm.0bc1yhb
p1836
I1832
sVm.0wy07gc
p1837
I1833
sVm.04_y8r
p1838
I1834
sVm.0zfn9y6
p1839
I1835
sVm.02qfwnd
p1840
I1836
sVm.0dt_z
p1841
I1837
sVm.0h46p2
p1842
I1838
sVm.02l74w
p1843
I1839
sVm.05chs2
p1844
I1840
sVm.0wyf3w2
p1845
I1841
sVm.07wpnd
p1846
I1842
sVm.011wtv
p1847
I1843
sVm.0c03hpd
p1848
I1844
sVm.08lkfj
p1849
I1845
sVm.0pc719h
p1850
I1846
sVm.0z44sbc
p1851
I1847
sVm.076ydym
p1852
I1848
sVm.0y5mcsx
p1853
I1849
sVm.0gy9d9j
p1854
I1850
sVm.097kp
p1855
I1851
sVm.0h2ndcb
p1856
I1852
sVm.0z451g8
p1857
I1853
sVm.0y7njhq
p1858
I2291
sVm.07hrghn
p1859
I1855
sVm.0tktkb6
p1860
I1856
sVm.0svskpl
p1861
I1857
sVm.0j63lyh
p1862
I1858
sVm.06n90
p1863
I1859
sVm.02x75cn
p1864
I1860
sVm.0dqgcf
p1865
I1861
sVm.04kcrg7
p1866
I1862
sVm.0pbxmpv
p1867
I1863
sVm.08qwl6
p1868
I1864
sVm.03jldb
p1869
I1865
sVm.0y4_pjq
p1870
I1866
sVm.020gzz
p1871
I1867
sVm.02x0f62
p1872
I1868
sVm.0ydy47l
p1873
I1869
sVm.0glzmr7
p1874
I1870
sVm.0glzmr0
p1875
I1871
sVm.0119_h0n
p1876
I1872
sVm.03whkym
p1877
I1873
sVm.0dq3c
p1878
I1874
sVm.0y7vm1r
p1879
I1875
sVm.026r2wm
p1880
I1876
sVm.0y83vj3
p1881
I2436
sVm.0pmfg28
p1882
I1877
sVm.04kcrgf
p1883
I1878
sVm.014mlp
p1884
I1879
sVm.04kcrgm
p1885
I1880
sVm.0glzmrp
p1886
I1881
sVm.0v3bg7h
p1887
I1882
sVm.05c3gf
p1888
I1883
sVm.0glzmrx
p1889
I1884
sVm.0glzmrg
p1890
I1885
sVm.0w0qf3b
p1891
I1886
sVm.0gn00
p1892
I1887
sVm.05b_wxl
p1893
I1888
sVm.02wjh2
p1894
I1889
sVm.044f_2
p1895
I1890
sVm.0zcrm_x
p1896
I1891
sVm.052_1x3
p1897
I1892
sVm.0jvy0g
p1898
I881
sVm.025rvv7
p1899
I1894
sVm.0f8l9c
p1900
I1895
sVm.0y7nc6t
p1901
I1896
sVm.03m71s1
p1902
I1897
sVm.0y85rc3
p1903
I1898
sVm.0263b55
p1904
I1899
sVm.0rzrmtb
p1905
I1900
sVm.02qzh2
p1906
I1901
sVm.09slf18
p1907
I1902
sVm.0hhxk86
p1908
I1903
sVm.0y5hxtz
p1909
I1904
sVm.0wy3xrt
p1910
I1905
sVm.04q8t22
p1911
I1906
sVm.0kgcs_z
p1912
I1907
sVm.01xljyt
p1913
I1908
sVm.093dqjy
p1914
I1909
sVm.05gpmlh
p1915
I1910
sVm.01xljym
p1916
I1911
sVm.026ny7y
p1917
I1912
sVm.03y9941
p1918
I1913
sVm.04q95wz
p1919
I1914
sVm.0hhxk8f
p1920
I1915
sVm.0y5hxt0
p1921
I1916
sVm.05gpml7
p1922
I1917
sVm.0cc9f00
p1923
I1918
sVm.0bq4rxy
p1924
I1919
sVm.0t4wrl8
p1925
I1920
sVm.0czbbsz
p1926
I1921
sVm.0y5c5f2
p1927
I1922
sVm.0yhsjk2
p1928
I1923
sVm.09r8m13
p1929
I1924
sVm.0kg3hn6
p1930
I1925
sVm.01cpqk
p1931
I1926
sVm.0253r3
p1932
I1927
sVm.03np1_j
p1933
I1928
sVm.0702_p
p1934
I1929
sVm.0t5vvv5
p1935
I1930
sVm.0d_kd
p1936
I1931
sVm.0bvpz64
p1937
I1932
sVm.02r6yv3
p1938
I1034
sVm.012z91bb
p1939
I1935
sVm.047dr_b
p1940
I1936
sVm.03n6jv
p1941
I1937
sVm.0wq4q7j
p1942
I1938
sVm.0p18s4d
p1943
I1939
sVm.0pbxn7f
p1944
I1940
sVm.05swyl0
p1945
I1941
sVm.01whg97
p1946
I1942
sVm.07kgjfw
p1947
I1943
sVm.0bby9p5
p1948
I1944
sVm.0ct2tf5
p1949
I1945
sVm.0c6l40
p1950
I1946
sVm.0gsvg9
p1951
I1947
sVm.05sr4wm
p1952
I1948
sVm.01l9x0
p1953
I1949
sVm.05sr4wt
p1954
I1950
sVm.03m5wxn
p1955
I1951
sVm.01q7h2
p1956
I1952
sVm.0y7n52l
p1957
I1953
sVm.0h2y9zw
p1958
I1954
sVm.03tzsr
p1959
I1955
sVm.01h7bb
p1960
I1956
sVm.0vx6by3
p1961
I1957
sVm.04q87ks
p1962
I1958
sVm.01nr563
p1963
I1959
sVm.01lhy
p1964
I1960
sVm.0ydwssc
p1965
I1961
sVm.0w2tqhd
p1966
I1962
sVm.03nfnx
p1967
I1963
sVm.08nhjh
p1968
I1964
sVm.05t38ng
p1969
I1965
sVm.0gfgmxb
p1970
I1966
sVm.05t38nw
p1971
I1967
sVm.01hdzl3
p1972
I1968
sVm.04dr_k8
p1973
I1349
sVm.0v1knmc
p1974
I1970
sVm.0n5cb5s
p1975
I1971
sVm.0y7zwrh
p1976
I1972
sVm.0jmjr
p1977
I1973
sVm.022qn6
p1978
I1974
sVm.0yhss3k
p1979
I1975
sVm.0gjd5h_
p1980
I1976
sVm.063qwjg
p1981
I1977
sVm.04typ1p
p1982
I1978
sVm.0vx6btt
p1983
I1979
sVm.09v71cj
p1984
I1980
sVm.0gypc
p1985
I1981
sVm.043zb9t
p1986
I1982
sVm.0t_lm2b
p1987
I1983
sVm.0gy3rv
p1988
I1984
sVm.0krtf1
p1989
I1985
sVm.0bv_2dr
p1990
I1986
sVm.0zcfwm5
p1991
I1987
sVm.042d1
p1992
I1988
sVm.0b73jn3
p1993
I1989
sVm.0pc71c7
p1994
I1990
sVm.027q1lq
p1995
I1991
sVm.0y5htkd
p1996
I1992
sVm.0bjqdqr
p1997
I122
sVm.0gc6r9j
p1998
I1994
sVm.0gh8bg1
p1999
I1995
sVm.01vbl
p2000
I1996
sVm.079h0
p2001
I1997
sVm.0rfdhkm
p2002
I1998
sVm.073hd1
p2003
I1999
sVm.0ng5055
p2004
I2000
sVm.0gbtbm
p2005
I2001
sVm.01vdm0
p2006
I2002
sVm.03r8vn
p2007
I2003
sVm.0wfjs2d
p2008
I2004
sVm.01vb2
p2009
I2005
sVm.02k6s2c
p2010
I2006
sVm.02k6s2y
p2011
I2007
sVm.0g6z1
p2012
I36
sVm.028b4nv
p2013
I2009
sVm.0crchrl
p2014
I2010
sVm.0cw2mg
p2015
I2011
sVm.017gl1
p2016
I4271
sVm.03shp
p2017
I3307
sVm.0yhrv6r
p2018
I2014
sVm.0y900_n
p2019
I2015
sVm.0p8gvyk
p2020
I2016
sVm.0d8j8h
p2021
I2017
sVm.0ghghm0
p2022
I2018
sVm.01ty_f
p2023
I2019
sVm.05_5zzv
p2024
I2020
sVm.0wzb34c
p2025
I2021
sVm.0yhswp8
p2026
I2022
sVm.03by2_
p2027
I1363
sVm.02wgd4y
p2028
I2024
sVm.0l6c9
p2029
I2025
sVm.04j0qjb
p2030
I2026
sVm.0gzgdj3
p2031
I2027
sVm.0gvryyc
p2032
I2028
sVm.0ggfdj
p2033
I2029
sVm.050xxm
p2034
I2030
sVm.01_mdl
p2035
I2031
sVm.0x82
p2036
I2032
sVm.02_29cg
p2037
I2033
sVm.0n08r
p2038
I2034
sVm.04kww0
p2039
I2035
sVm.0p18lyz
p2040
I2036
sVm.0pbxl49
p2041
I2037
sVm.0kfrnf6
p2042
I1367
sVm.0dzm0j
p2043
I2039
sVm.0yhrqtx
p2044
I2040
sVm.07cb3q9
p2045
I2041
sVm.0y7zr3p
p2046
I2042
sVm.0fg23x
p2047
I2043
sVm.0p8g2c1
p2048
I416
sVm.0jm2v
p2049
I2045
sVm.0v1klfw
p2050
I2046
sVm.0bggwsl
p2051
I2047
sVm.0fr0r2
p2052
I2048
sVm.0y5wwqd
p2053
I2049
sVm.0yhshx1
p2054
I2050
sVm.038qp0
p2055
I2051
sVm.03w_g5
p2056
I2052
sVm.07tggxc
p2057
I2053
sVm.0y911nv
p2058
I1370
sVm.0y7zxk4
p2059
I2055
sVm.0y85kvc
p2060
I2056
sVm.06468lt
p2061
I2057
sVm.0v9mzz8
p2062
I2058
sVm.0gc5t4p
p2063
I2059
sVm.0pbxl89
p2064
I2060
sVm.04f398y
p2065
I2061
sVm.01yrt2
p2066
I2062
sVm.0y7ndt9
p2067
I2063
sVm.0y85wjr
p2068
I2064
sVm.01zhj4
p2069
I2065
sVm.0hdzjj9
p2070
I2066
sVm.0ydyyh0
p2071
I2067
sVm.080b54x
p2072
I2068
sVm.0w4b8ys
p2073
I2069
sVm.0gyyrh0
p2074
I2070
sVm.02x5w_g
p2075
I594
sVm.05tr59
p2076
I2072
sVm.0fqht8
p2077
I2073
sVm.0y84qvp
p2078
I2074
sVm.0y5c5yr
p2079
I2075
sVm.0bh9n8g
p2080
I2076
sVm.0c9t0y
p2081
I2077
sVm.0fppd_g
p2082
I2078
sVm.09g3gz8
p2083
I2079
sVm.07trsy
p2084
I2080
sVm.05gpncx
p2085
I2081
sVm.0ydtgvt
p2086
I2082
sVm.0yhst7r
p2087
I2083
sVm.02fqrf
p2088
I2084
sVm.05m1x45
p2089
I2085
sVm.0b3x5zt
p2090
I2086
sVm.02nwmm6
p2091
I2087
sVm.0nfkx7j
p2092
I2088
sVm.05dvfq8
p2093
I1374
sVm.0y5wv56
p2094
I2090
sVm.03bxkc4
p2095
I2091
sVm.05m1x4c
p2096
I2092
sVm.0c74l45
p2097
I2093
sVm.0y7nn98
p2098
I2094
sVm.0j27q89
p2099
I2095
sVm.03qcsg9
p2100
I2096
sVm.0cmc3j9
p2101
I747
sVm.0bpnk5
p2102
I751
sVm.019v9k
p2103
I2099
sVm.0t_bv_8
p2104
I2100
sVm.0pc73jc
p2105
I2101
sVm.0dltq_9
p2106
I2102
sVm.0bh8xz2
p2107
I2103
sVm.0kfq_2f
p2108
I2104
sVm.0g3zrd
p2109
I2105
sVm.0p191rf
p2110
I2106
sVm.0yhrqkm
p2111
I2107
sVm.0z5bsdc
p2112
I864
sVm.052lw4n
p2113
I2109
sVm.0djy52v
p2114
I2110
sVm.038q8p
p2115
I2111
sVm.0gx0sc7
p2116
I2112
sVm.0y5mc9y
p2117
I2113
sVm.02ps5ww
p2118
I2114
sVm.03t79f
p2119
I2115
sVm.012sdh1r
p2120
I2116
sVm.02v_87f
p2121
I2117
sVm.015q60
p2122
I2118
sVm.0y5mc9n
p2123
I2119
sVm.0w4bjwr
p2124
I929
sVm.0fq9zdv
p2125
I2121
sVm.0dvyc5
p2126
I2122
sVm.02_7l8y
p2127
I2123
sVm.0mvy8kp
p2128
I2124
sVm.0zfn84z
p2129
I2125
sVm.0gvvr97
p2130
I2126
sVm.06r2_
p2131
I1004
sVm.01m9
p2132
I2128
sVm.0dyw6b
p2133
I2129
sVm.085vr5
p2134
I2130
sVm.0y84sw7
p2135
I2131
sVm.010kk6fr
p2136
I2132
sVm.026zt2f
p2137
I2133
sVm.0vsjsxr
p2138
I2134
sVg.120s1vc2
p2139
I2135
sVm.01wgt4l
p2140
I2136
sVm.02qdt7z
p2141
I2137
sVm.0vx5nv4
p2142
I2138
sVm.0661m4p
p2143
I2139
sVm.05v5158
p2144
I2140
sVm.01mp
p2145
I2141
sVm.04fnpn6
p2146
I2142
sVm.014dfn
p2147
I2143
sVm.0yd6krr
p2148
I2144
sVm.047fv9k
p2149
I2145
sVm.01mh
p2150
I2146
sVm.0yht0mh
p2151
I2147
sVm.029zqn
p2152
I2148
sVm.0h5sf7s
p2153
I2149
sVm.0dgqlnx
p2154
I2150
sVm.0h5sf7j
p2155
I2151
sVm.0vptnz4
p2156
I2152
sVm.02ph41w
p2157
I2153
sVm.02_y1rn
p2158
I2154
sVm.0c0931n
p2159
I2155
sVm.013w8h
p2160
I2156
sVm.055td_
p2161
I2157
sVm.099vtk
p2162
I2158
sVm.0gtsxr4
p2163
I2159
sVm.0c0931z
p2164
I2160
sVm.0443v1
p2165
I2161
sVm.0y7nfq7
p2166
I2162
sVm.0h5sf78
p2167
I2163
sVm.0f94fd
p2168
I2164
sVm.0w2d7hb
p2169
I2165
sVm.0n3xxpd
p2170
I2166
sVm.06_2s42
p2171
I2167
sVm.026s7zc
p2172
I2168
sVm.03wgqg9
p2173
I2169
sVm.04lgc4w
p2174
I2170
sVm.013d_f
p2175
I2171
sVm.04j2fr6
p2176
I2172
sVm.0y85l97
p2177
I2173
sVm.025v_1d
p2178
I2174
sVm.0y5mfyt
p2179
I2175
sVm.0dyb1
p2180
I2176
sVm.01xls2
p2181
I2177
sVm.0c09316
p2182
I2178
sVm.0y5c1p0
p2183
I2179
sVm.0vx562m
p2184
I2180
sVm.0svsg7d
p2185
I2181
sVm.04q79r7
p2186
I2182
sVm.04kcwlg
p2187
I2183
sVm.0hns5jx
p2188
I2184
sVm.01wflbc
p2189
I4373
sVm.041ggx
p2190
I1389
sVm.02r1tx7
p2191
I2187
sVm.026ypgc
p2192
I2188
sVm.0wp6wwy
p2193
I2189
sVm.0vx6bzj
p2194
I2190
sVm.0hfg0rv
p2195
I2191
sVm.0gyxk14
p2196
I2192
sVm.0bthgtv
p2197
I2193
sVm.0mv2rrb
p2198
I2194
sVm.0t4wy0v
p2199
I2195
sVm.0bthgty
p2200
I2196
sVm.0ydvx_w
p2201
I2197
sVm.0130xdjt
p2202
I1312
sVm.0d8jbn
p2203
I1315
sVm.0y85pbb
p2204
I2200
sVm.0ydwwmk
p2205
I2201
sVm.04tynx6
p2206
I2202
sVm.0vmydlg
p2207
I2203
sVm.04q78
p2208
I2204
sVm.04qbv
p2209
I2205
sVm.0fq2c10
p2210
I2206
sVm.0j15t9k
p2211
I2207
sVm.08521z1
p2212
I2208
sVm.027vrr4
p2213
I2209
sVm.0fdxxb
p2214
I2210
sVm.0bdfp_8
p2215
I2211
sVm.0k6353m
p2216
I2212
sVm.0y580qw
p2217
I2213
sVm.04cs5bx
p2218
I2214
sVm.0916sy
p2219
I2215
sVm.0y5mbp1
p2220
I2217
sVm.0p18_gt
p2221
I2218
sVm.063zyv
p2222
I2219
sVm.01lcr5
p2223
I2220
sVm.0svr5b7
p2224
I2352
sVm.0ds27b
p2225
I2222
sVm.0_hgm2x
p2226
I2223
sVm.0dltr0c
p2227
I3337
sVm.0svr63c
p2228
I2225
sVm.0gx8__9
p2229
I2226
sVm.0yd7rff
p2230
I2227
sVm.0h4vrd
p2231
I2228
sVm.02hwhqt
p2232
I2229
sVm.0vx69_7
p2233
I2230
sVm.0bb2g9p
p2234
I2231
sVm.0d_3gp
p2235
I2232
sVm.0y5mbpb
p2236
I2233
sVm.0p18l7n
p2237
I2234
sVm.03bhwh
p2238
I2235
sVm.04f774w
p2239
I2236
sVm.0yhrv8k
p2240
I2237
sVm.0r3r5jz
p2241
I2238
sVm.01xml3
p2242
I2239
sVm.0yhsd8g
p2243
I2240
sVm.01zdtb
p2244
I2241
sVm.04yny9t
p2245
I2242
sVm.03by2mp
p2246
I2243
sVm.0y7zphg
p2247
I2244
sVm.02pkz7
p2248
I2245
sVm.02qfnrg
p2249
I2246
sVm.0p0t07f
p2250
I2247
sVm.0jws4d1
p2251
I2248
sVm.01z215
p2252
I1397
sVm.07c0j
p2253
I2250
sVm.04fx6hh
p2254
I2251
sVm.026t4v3
p2255
I2252
sVm.04stv4g
p2256
I2253
sVm.0fq1b3
p2257
I2254
sVm.07j_qm
p2258
I2255
sVm.0h5nhn_
p2259
I2256
sVm.0fzjb8
p2260
I2257
sVm.05f5tq
p2261
I2258
sVm.05h9vj2
p2262
I2259
sVm.0j1_qsf
p2263
I2260
sVm.05spvb
p2264
I2261
sVm.0ydx1ny
p2265
I2262
sVm.06wwrg
p2266
I2263
sVm.04j1d69
p2267
I2264
sVm.0y5wwsl
p2268
I2265
sVm.07s7m20
p2269
I2266
sVm.05srdj0
p2270
I2267
sVm.04j2dsm
p2271
I2268
sVm.03bxsmr
p2272
I2269
sVm.034qd2
p2273
I2270
sVm.04_1pjx
p2274
I2271
sVm.05srdjy
p2275
I2272
sVm.0vb3f9_
p2276
I2273
sVm.0y7n1bf
p2277
I2274
sVm.0gt_93
p2278
I1515
sVm.022qzh8
p2279
I2276
sVm.027q16_
p2280
I2277
sVm.0lyxb7f
p2281
I2278
sVm.0gxtknx
p2282
I2279
sVm.0pc737b
p2283
I2280
sVm.028kfw
p2284
I2281
sVm.0h32ml0
p2285
I2282
sVm.06hdpr
p2286
I3350
sVm.0g7d7b
p2287
I2284
sVm.05rdkb
p2288
I2285
sVm.0pc7153
p2289
I2286
sVm.046f3p
p2290
I2287
sVm.02stz2
p2291
I2288
sVm.01y916
p2292
I5455
sVm.02hxz3n
p2293
I2290
sVm.04dx7g
p2294
I1854
sVm.04j2b4t
p2295
I2292
sVm.01jb8r
p2296
I2293
sVm.0f4_l
p2297
I2294
sVm.0y4m_xb
p2298
I2295
sVg.1226992t
p2299
I2296
sVm.059c3ft
p2300
I2297
sVm.05srmbd
p2301
I2298
sVm.06dpl6
p2302
I2299
sVm.0l3r43v
p2303
I2300
sVm.065h745
p2304
I2301
sVm.0br67f
p2305
I2302
sVm.09tl2h
p2306
I2303
sVm.0yhsq0b
p2307
I2304
sVm.0n53mcy
p2308
I2305
sVm.080bgdm
p2309
I2306
sVm.0w4b9sd
p2310
I2307
sVm.0yd6zwy
p2311
I2308
sVm.01g65g
p2312
I2309
sVm.0b1yrg
p2313
I2310
sVm.05jwph
p2314
I2311
sVm.026qtvd
p2315
I2312
sVm.0z4pxj6
p2316
I2313
sVm.0272jcs
p2317
I2314
sVm.02pfxh1
p2318
I2315
sVm.02w_hsv
p2319
I2316
sVm.0kshgq
p2320
I2317
sVm.029ld0
p2321
I2318
sVm.0y7nc2d
p2322
I2319
sVm.0y5mh2h
p2323
I2320
sVm.0yj887_
p2324
I2321
sVm.0y5ws_n
p2325
I2322
sVm.033fyr
p2326
I2323
sVm.05p4097
p2327
I2324
sVm.0cz9q3q
p2328
I2325
sVm.0bql2w
p2329
I2326
sVm.03yw86s
p2330
I2327
sVm.0g3zpp
p2331
I2328
sVm.04mxj78
p2332
I2329
sVm.0h0hjd
p2333
I2330
sVm.04fblm
p2334
I2331
sVm.0h2v2v3
p2335
I2332
sVm.05gk8px
p2336
I2333
sVm.0y90mgb
p2337
I2334
sVm.0q4xw
p2338
I2335
sVm.0m5s5
p2339
I2336
sVm.0y5mfy9
p2340
I2337
sVm.02n1sr
p2341
I1379
sVm.03yw861
p2342
I2339
sVm.0zwpwtt
p2343
I2340
sVm.02mkzj
p2344
I2341
sVm.0p8gf2f
p2345
I2342
sVm.0z448q0
p2346
I2343
sVm.04n3l
p2347
I2344
sVm.0j_84f7
p2348
I2345
sVm.02mmwk
p2349
I2346
sVm.03_5s0
p2350
I2347
sVm.02qvyrt
p2351
I2348
sVm.03dq5hl
p2352
I2349
sVm.0110nff9
p2353
I2350
sVm.0vx6lrl
p2354
I2351
sVm.0v40wms
p2355
I2221
sVm.093bxm
p2356
I2353
sVm.05f06q
p2357
I2354
sVm.03nnsy
p2358
I2355
sVm.03np6wq
p2359
I2356
sVm.0gndv
p2360
I2357
sVm.01ttxw
p2361
I2358
sVm.02hx1cn
p2362
I2359
sVm.0pbxn3q
p2363
I2360
sVm.0v1c40d
p2364
I2361
sVm.0gksm1b
p2365
I2362
sVm.04yn_7_
p2366
I2363
sVm.07hyk
p2367
I2364
sVm.0y83ty8
p2368
I2365
sVm.019xcj
p2369
I2366
sVm.09c0x4
p2370
I2367
sVm.0w4b83g
p2371
I2368
sVm.0g4g1gl
p2372
I2369
sVm.04kszyy
p2373
I2370
sVm.0g4g1gb
p2374
I2371
sVm.05pnb1
p2375
I2372
sVm.0dgyp_
p2376
I2373
sVm.0g4g1gz
p2377
I2374
sVm.0gdkj19
p2378
I2375
sVm.059hl
p2379
I2376
sVm.04dwybb
p2380
I2377
sVm.0hfl5zs
p2381
I2378
sVm.0pbxh9g
p2382
I2379
sVm.016jz3
p2383
I2380
sVm.0cwz50
p2384
I2381
sVm.0pbxg61
p2385
I2382
sVm.0523pz4
p2386
I2383
sVm.0g4b8q
p2387
I2384
sVm.0c2l5
p2388
I2385
sVm.0dtfn
p2389
I2386
sVm.041344k
p2390
I2387
sVm.0wyqgbq
p2391
I2388
sVm.081t6
p2392
I2389
sVm.0tkt7_z
p2393
I2390
sVm.0s4kl
p2394
I1419
sVm.0y6ydpt
p2395
I2392
sVm.0vx59_q
p2396
I2393
sVm.04gq0xm
p2397
I2394
sVm.0547x7
p2398
I2395
sVm.0hgj3fz
p2399
I2396
sVm.0765fq
p2400
I2397
sVm.0bnznr
p2401
I2398
sVm.0yhrxcf
p2402
I2399
sVm.0gxq3wr
p2403
I2400
sVm.04q5g
p2404
I2401
sVm.0y5k997
p2405
I2402
sVg.120vyyqj
p2406
I2403
sVm.08j62y
p2407
I2404
sVm.07l4_10
p2408
I2405
sVm.04typ59
p2409
I2406
sVm.0y90gv5
p2410
I2407
sVm.0vmydnn
p2411
I2408
sVm.03wlpsx
p2412
I2409
sVm.04gp5lx
p2413
I2410
sVm.0fdxzr
p2414
I2411
sVm.0282s5x
p2415
I2412
sVm.0y5_dbt
p2416
I2413
sVm.02lq5w
p2417
I2414
sVm.0yj6_fk
p2418
I2415
sVm.0g53vqt
p2419
I2416
sVm.0wyf2fr
p2420
I2417
sVm.0n9gl31
p2421
I2418
sVm.0502pc
p2422
I2419
sVm.06g42
p2423
I2420
sVm.0y7npyg
p2424
I2421
sVm.0w1gch8
p2425
I2422
sVm.011lzwh3
p2426
I2423
sVm.03wcln2
p2427
I2424
sVm.01xr_cb
p2428
I2425
sVm.0gks4nh
p2429
I2426
sVm.023v4_
p2430
I2427
sVm.04grhdj
p2431
I2428
sVm.0c3y53x
p2432
I2429
sVm.0hgt6v9
p2433
I2430
sVm.0y83xg8
p2434
I2431
sVg.122dld4n
p2435
I2432
sVm.02x1g63
p2436
I2433
sVm.04xvzg
p2437
I2434
sVm.08hctl
p2438
I2435
sVm.0y7n9w3
p2439
I2751
sVm.047f43s
p2440
I2437
sVm.02680qh
p2441
I2438
sVm.0wyqy1p
p2442
I2439
sVm.028b_sc
p2443
I2440
sVm.0zfnm7t
p2444
I2782
sVm.04ld6r2
p2445
I2442
sVm.0y5ht3_
p2446
I2443
sVm.057176
p2447
I826
sVm.0gyy53
p2448
I2445
sVm.0y7zvtj
p2449
I2446
sVm.0vx6d7p
p2450
I2447
sVm.0v8_gw0
p2451
I2448
sVm.0c1j6lr
p2452
I2449
sVm.0gygj3v
p2453
I2450
sVm.01c7y
p2454
I2451
sVm.0fx80y
p2455
I2452
sVm.0p8fq9j
p2456
I2453
sVm.0c1j6lc
p2457
I2454
sVm.0br0qn
p2458
I2455
sVm.07wpd_
p2459
I2456
sVm.0pc75c0
p2460
I2457
sVm.0wz4mhq
p2461
I2458
sVm.02d413
p2462
I2459
sVm.027vrmc
p2463
I2460
sVm.0bln8
p2464
I2461
sVm.065c40
p2465
I2462
sVm.04627dk
p2466
I3384
sVm.0c1j6l1
p2467
I2464
sVm.0tl3l3w
p2468
I2465
sVm.05x1gn
p2469
I2466
sVm.05lzjch
p2470
I2467
sVm.0y85sbv
p2471
I2468
sVm.0v1kl7l
p2472
I2469
sVm.0mdlf
p2473
I2470
sVm.05srdhf
p2474
I2471
sVm.0gj8tgb
p2475
I2472
sVm.05srdhq
p2476
I2473
sVm.0y85wnw
p2477
I2474
sVm.03qp9fz
p2478
I2475
sVm.04fgxk1
p2479
I2476
sVm.0z440d6
p2480
I2477
sVm.0kv6ql
p2481
I2478
sVm.0mv2gns
p2482
I2479
sVm.0grrnx
p2483
I2480
sVm.0crdxqs
p2484
I2481
sVm.0gm11gz
p2485
I2482
sVm.07wwk5l
p2486
I2483
sVm.0y7vmb_
p2487
I3092
sVm.05hhhx
p2488
I2485
sVm.0h8gbw3
p2489
I2486
sVm.0bs8ndx
p2490
I2487
sVm.0z4n6zs
p2491
I2488
sVm.02z0f6l
p2492
I2489
sVm.07wwk5z
p2493
I2490
sVm.0w4bcd6
p2494
I2491
sVm.0gr0m
p2495
I3114
sVm.0w49yq7
p2496
I2493
sVm.0c4hvgh
p2497
I2494
sVm.0c_lph
p2498
I2495
sVm.02qd6h2
p2499
I2496
sVm.05rfst
p2500
I2497
sVm.0y5wt39
p2501
I2498
sVm.0b_kw51
p2502
I2499
sVm.0vx6wdl
p2503
I2500
sVm.0fq759f
p2504
I2501
sVm.0260ld
p2505
I2502
sVm.0y85rmx
p2506
I2503
sVm.0y8_kfs
p2507
I2504
sVm.02_w_r9
p2508
I2505
sVm.0yhykz8
p2509
I2506
sVg.121y5178
p2510
I2507
sVm.0zfn8pz
p2511
I2508
sVm.01lqm
p2512
I2509
sVm.0b_kw5p
p2513
I2510
sVm.0y7nf5z
p2514
I2511
sVm.0fgpgz
p2515
I2512
sVm.0pc73ny
p2516
I2513
sVm.0v1kkt9
p2517
I2514
sVm.0bxn0q
p2518
I2515
sVm.03lrls
p2519
I2516
sVm.0y5mh0w
p2520
I2517
sVm.0z4qd9z
p2521
I2518
sVm.0y57lhp
p2522
I2519
sVm.03gqfvt
p2523
I2520
sVm.028b1c8
p2524
I2521
sVm.03qrgm
p2525
I2522
sVm.0w4bjs9
p2526
I2523
sVm.039crh
p2527
I2524
sVm.0j_84dv
p2528
I2525
sVm.01t7n9
p2529
I2526
sVm.02x050d
p2530
I2527
sVm.07wm91
p2531
I3352
sVm.051zmv6
p2532
I2529
sVm.01msch
p2533
I2530
sVm.0h5nqjp
p2534
I2531
sVm.07nd5f
p2535
I2532
sVm.02yy8
p2536
I2533
sVm.0v1kmz8
p2537
I2534
sVm.076pjlc
p2538
I2535
sVm.0gw37x
p2539
I2536
sVm.0pbxdx6
p2540
I2537
sVm.02hxcvy
p2541
I2538
sVm.02rxbq6
p2542
I2539
sVm.09k639r
p2543
I2540
sVm.04j26pl
p2544
I2541
sVm.01y665
p2545
I2542
sVm.03kdl
p2546
I2543
sVm.0h1c_k
p2547
I2544
sVm.0pbxlxh
p2548
I2545
sVm.0gwrlvc
p2549
I2546
sVm.0knwrtk
p2550
I2547
sVm.04lgx5r
p2551
I2548
sVm.03wbzvj
p2552
I2549
sVm.0d_8qj
p2553
I2550
sVm.0dlsl1
p2554
I2551
sVm.0vmxh0r
p2555
I2552
sVm.02zsn
p2556
I2553
sVm.0g7nb_
p2557
I2554
sVm.02bkdn
p2558
I2555
sVm.062yml
p2559
I2556
sVm.07hd6p
p2560
I2557
sVm.0n1091p
p2561
I2558
sVm.064sn5
p2562
I2559
sVm.06z3xb
p2563
I2560
sVm.0y5mgsq
p2564
I2561
sVm.0gcbv9x
p2565
I2562
sVm.0vymjzx
p2566
I2563
sVm.0c099zt
p2567
I2564
sVm.03qb78c
p2568
I2565
sVm.04kx26
p2569
I2566
sVm.0l1540
p2570
I2567
sVm.027bwmd
p2571
I2568
sVm.0pbxj1w
p2572
I2569
sVm.0v435l3
p2573
I2570
sVm.02651zl
p2574
I2571
sVm.03c2h8h
p2575
I2572
sVm.09td7p
p2576
I2573
sVm.0ds1flb
p2577
I2574
sVm.081rb
p2578
I2575
sVm.02hx3w3
p2579
I2576
sVm.0chghy
p2580
I2577
sVm.0svswsl
p2581
I2578
sVm.0fdy03
p2582
I2579
sVm.0284w
p2583
I2580
sVm.0gbx4yx
p2584
I2581
sVm.0jm_
p2585
I2582
sVm.0z44_bg
p2586
I2583
sVm.026gt8b
p2587
I2584
sVm.0h4rj3
p2588
I2585
sVm.0yht01r
p2589
I2586
sVm.0gmm518
p2590
I2587
sVm.0z45hyd
p2591
I2588
sVm.0pc62n7
p2592
I2589
sVm.0kpyns
p2593
I2644
sVm.0yhsv0r
p2594
I3750
sVm.07nn8g
p2595
I2592
sVm.02qrv42
p2596
I2593
sVm.04c65q
p2597
I2594
sVm.0157m
p2598
I2595
sVm.08zckz
p2599
I2596
sVm.0fj2pd
p2600
I2289
sVm.03tps5
p2601
I2597
sVm.02079p
p2602
I2598
sVm.05xjb
p2603
I2599
sVm.05p8d7f
p2604
I2600
sVm.01k5k1
p2605
I2601
sVm.05sc_f
p2606
I2602
sVm.01b_lz
p2607
I2603
sVm.05sqngn
p2608
I2604
sVm.02plt6
p2609
I2605
sVm.0y7nd6r
p2610
I2606
sVm.02h8512
p2611
I2607
sVm.0k2k46z
p2612
I2608
sVm.0svr67k
p2613
I2609
sVm.06rg7s
p2614
I2610
sVm.0h1f4w6
p2615
I2611
sVm.03hc0b
p2616
I2612
sVm.03phtz
p2617
I2613
sVm.0y5_d7b
p2618
I2614
sVm.0y85mqj
p2619
I2615
sVm.0vps74l
p2620
I2616
sVm.01gzln
p2621
I2617
sVm.0wyc1rk
p2622
I2618
sVm.0y5_cxb
p2623
I2619
sVm.03ctzzn
p2624
I2620
sVm.02pqp12
p2625
I2621
sVm.05_x7p
p2626
I2622
sVm.03cls2x
p2627
I2623
sVm.0h5kk47
p2628
I2624
sVm.0svr6bt
p2629
I2625
sVm.0ctjdy
p2630
I2626
sVm.0y5hs_5
p2631
I2627
sVg.120yrd_6
p2632
I2628
sVm.0888p4
p2633
I2629
sVm.0937ms
p2634
I2630
sVm.01wc7p
p2635
I2631
sVm.0bnpcbs
p2636
I3970
sVm.0j5lh7x
p2637
I2633
sVm.0642ykh
p2638
I2634
sVm.0vx6gb6
p2639
I2635
sVm.0661q3h
p2640
I1464
sVm.03vlwy
p2641
I2637
sVm.05qd9r
p2642
I2638
sVm.0b4wwx2
p2643
I2639
sVm.0ycr1rn
p2644
I2640
sVm.02j8z
p2645
I2641
sVm.0y5hs_p
p2646
I2642
sVm.0gkp_k
p2647
I2643
sVm.0zfn8kc
p2648
I4041
sVm.026nx7k
p2649
I2645
sVm.047bxtz
p2650
I2646
sVm.0vvhbn1
p2651
I3410
sVm.017yj_
p2652
I4066
sVm.0y85tbv
p2653
I2650
sVm.0y5html
p2654
I2651
sVm.0z44wnt
p2655
I2652
sVm.0yd6vzk
p2656
I2653
sVm.05ssfhp
p2657
I2654
sVm.012bd8z4
p2658
I2655
sVm.025x2pk
p2659
I2656
sVm.026jt8b
p2660
I2657
sVm.0ddjy
p2661
I2658
sVm.036hv
p2662
I4113
sVm.036p6v
p2663
I2660
sVm.0gx09vj
p2664
I2661
sVm.0w1y2fv
p2665
I2662
sVm.0c1j6nf
p2666
I2663
sVm.026nywj
p2667
I2664
sVm.03h1zcf
p2668
I2665
sVm.0tl3ljg
p2669
I2666
sVm.0y7mxyv
p2670
I2667
sVm.0gq9h
p2671
I2668
sVm.026kpyv
p2672
I2669
sVm.0bmblf9
p2673
I2670
sVm.02h40lc
p2674
I5424
sVm.0jm8l
p2675
I2671
sVm.031ygd
p2676
I2672
sVm.02b0l5
p2677
I2673
sVm.02x6nw4
p2678
I2674
sVm.0g2lq
p2679
I2675
sVm.052nmn9
p2680
I2676
sVm.0nhfsnr
p2681
I4204
sVm.05q7g_b
p2682
I2678
sVm.041582y
p2683
I2679
sVm.0sgpyy_
p2684
I2680
sVm.01pgr3
p2685
I2681
sVm.011qhp00
p2686
I2682
sVm.02pqjch
p2687
I2683
sVm.02k6hp
p2688
I2684
sVm.04j28t0
p2689
I2685
sVm.05zvq6g
p2690
I2686
sVm.0w49ysz
p2691
I2687
sVm.0gynwr
p2692
I2688
sVm.0ydvt2b
p2693
I2689
sVm.07wwk78
p2694
I2690
sVm.012z_73f
p2695
I2691
sVm.0y7vp4y
p2696
I2692
sVm.0h2hjpn
p2697
I2693
sVm.0v3bgjk
p2698
I2694
sVm.0tl2_tc
p2699
I2695
sVm.0p19d0y
p2700
I2696
sVm.044g_k
p2701
I2697
sVm.0gxdfh5
p2702
I2698
sVm.0v9n2bh
p2703
I2699
sVm.0gn84
p2704
I2700
sVm.0y7n11h
p2705
I2701
sVm.0zrr7rh
p2706
I2702
sVm.02mgp
p2707
I2703
sVm.0pc711b
p2708
I2705
sVm.0y5mg90
p2709
I2706
sVm.0nfkx9h
p2710
I2707
sVm.03b6bx
p2711
I4384
sVm.0479nv4
p2712
I2709
sVm.05b4frz
p2713
I2710
sVm.0svsy0b
p2714
I2711
sVm.0337zb
p2715
I2712
sVm.01664_
p2716
I2713
sVm.08j4sq
p2717
I2714
sVm.012xcl
p2718
I2715
sVm.0cl9kvr
p2719
I1481
sVm.0463dy2
p2720
I2717
sVm.0b_kw7r
p2721
I2718
sVm.0hr6nxl
p2722
I2719
sVm.0vx6l6j
p2723
I2721
sVm.0hr6nxv
p2724
I2722
sVm.0yhrwhh
p2725
I2723
sVm.0454xx
p2726
I2724
sVm.0281cqd
p2727
I2725
sVm.0j2g5ck
p2728
I2726
sVm.0hdz9
p2729
I2727
sVm.0dc29w
p2730
I2728
sVm.0vvh3hc
p2731
I2729
sVm.09ryhrh
p2732
I2730
sVm.07cm6_
p2733
I2731
sVm.0hc9195
p2734
I2732
sVm.0f3gn1
p2735
I2733
sVm.0bxsk
p2736
I2734
sVm.0p8r1
p2737
I2735
sVm.02hx29h
p2738
I2736
sVm.0z452c4
p2739
I2737
sVm.0d_w8p
p2740
I2738
sVm.0dxmxg
p2741
I2739
sVm.029_3
p2742
I2740
sVm.0p8frhr
p2743
I2741
sVm.0p8gk7p
p2744
I2742
sVm.0vvh6sc
p2745
I2743
sVm.031hcx
p2746
I2744
sVg.1hc0h5r38
p2747
I2745
sVm.052q5y
p2748
I2746
sVm.06lpgy
p2749
I2747
sVm.027571b
p2750
I2748
sVm.048n9_m
p2751
I2749
sVg.121jchxt
p2752
I2750
sVm.0hy_s2x
p2753
I367
sVm.0bswhn
p2754
I2752
sVm.04w0y4p
p2755
I2753
sVm.0z4q367
p2756
I2754
sVm.01_6ps8
p2757
I2755
sVm.0gwkm
p2758
I2756
sVm.048n9_5
p2759
I2757
sVm.0y5mgqg
p2760
I2758
sVm.0d3ks9d
p2761
I2759
sVm.0276my4
p2762
I2760
sVm.01xxv5b
p2763
I2761
sVm.0y58jhn
p2764
I2762
sVm.0cj8z0
p2765
I2763
sVm.070kfp
p2766
I5798
sVm.0v74
p2767
I2764
sVm.0hn_72f
p2768
I4879
sVm.0dnvdv
p2769
I2766
sVm.0gwc3ck
p2770
I2767
sVm.0gg7ssf
p2771
I2768
sVm.0509g5z
p2772
I2769
sVm.07c_l
p2773
I2770
sVm.0dgnnp1
p2774
I2771
sVm.0_qykrr
p2775
I2772
sVm.0d8lm
p2776
I2773
sVm.0pc6_18
p2777
I2774
sVm.0vx5f7y
p2778
I2775
sVm.0c35z8
p2779
I2776
sVm.025ygjf
p2780
I2777
sVg.1pz2trm2p
p2781
I2778
sVm.0y5mcfd
p2782
I2779
sVm.03m9v0
p2783
I2780
sVm.0hns5lg
p2784
I2781
sVm.0lc0w
p2785
I2441
sVm.0y5ww1k
p2786
I2783
sVm.01qvz8
p2787
I2784
sVm.07vx5p
p2788
I2785
sVm.064wtzh
p2789
I2786
sVm.0yqpkl6
p2790
I2787
sVm.0p8fw6t
p2791
I2788
sVm.0ggmql
p2792
I2789
sVm.087pfc
p2793
I5047
sVm.0y5mcf0
p2794
I2791
sVm.07yp01
p2795
I2792
sVm.0pbw9qb
p2796
I2793
sVm.06s3sm
p2797
I2794
sVm.0y61_3y
p2798
I2795
sVm.0vmydjy
p2799
I2796
sVm.0d3k1wd
p2800
I2797
sVm.059fc6
p2801
I2798
sVm.0275nhm
p2802
I2799
sVm.0v1l201
p2803
I2800
sVm.01342x
p2804
I2801
sVm.011v6djn
p2805
I2802
sVm.02_99rl
p2806
I2803
sVm.0zfn5_t
p2807
I2804
sVm.092j54
p2808
I2805
sVm.0gy9yz5
p2809
I2806
sVm.0yhsgh2
p2810
I2807
sVm.0271vkc
p2811
I2808
sVm.0gjy3y
p2812
I2809
sVm.09k56b7
p2813
I2810
sVm.0kv4r9
p2814
I2811
sVm.0vb366p
p2815
I2812
sVm.0y5ht8y
p2816
I2813
sVm.047fxjq
p2817
I2814
sVm.03ttl
p2818
I2815
sVm.0833td
p2819
I2816
sVm.0g589f9
p2820
I5178
sVm.0y5x1nr
p2821
I2818
sVm.025dnr9
p2822
I2819
sVm.02ll45
p2823
I2820
sVm.0p7z2cm
p2824
I2821
sVm.05890x6
p2825
I2822
sVm.0v25g_d
p2826
I2823
sVm.08ckmw
p2827
I2824
sVm.027gkyy
p2828
I2825
sVm.016kpn
p2829
I2826
sVm.0g6g9x
p2830
I2827
sVm.047dlfz
p2831
I2828
sVm.0340hj
p2832
I2829
sVm.0z5bc61
p2833
I2830
sVm.0rlz
p2834
I2831
sVm.0tl4gjf
p2835
I2832
sVm.05mzqqs
p2836
I2833
sVm.0y5c69d
p2837
I2834
sVm.025xc3
p2838
I2835
sVm.0cl_jz5
p2839
I2836
sVm.0zfnf8l
p2840
I2837
sVm.0bdjd
p2841
I2838
sVm.0pc70sm
p2842
I2839
sVm.03hk756
p2843
I5287
sVm.0djg54
p2844
I5294
sVm.05v38p
p2845
I2842
sVm.03sk83
p2846
I2843
sVm.028f12
p2847
I2844
sVm.0y5htck
p2848
I2845
sVm.0fv_92
p2849
I2846
sVg.120qkxcm
p2850
I2847
sVm.0zfnp28
p2851
I2848
sVm.0y5htcr
p2852
I2849
sVm.026k503
p2853
I2850
sVm.05ssfjk
p2854
I2851
sVm.03hxsv
p2855
I2852
sVm.03c54jq
p2856
I2853
sVm.03ysmg
p2857
I2854
sVm.0bnpc93
p2858
I2855
sVm.0v_cqzl
p2859
I2856
sVm.01xs039
p2860
I2857
sVm.0p19dcd
p2861
I2858
sVm.01xs033
p2862
I5374
sVm.07tw_s
p2863
I5378
sVm.026nyyl
p2864
I2861
sVm.0vvhfsm
p2865
I5386
sVm.030t_m
p2866
I2863
sVm.011774n3
p2867
I2864
sVm.09rgjv
p2868
I2865
sVm.0dl9_4
p2869
I2866
sVm.06s1pk
p2870
I2867
sVm.0288qn8
p2871
I2868
sVm.01yjl4
p2872
I2869
sVm.0y85c12
p2873
I2870
sVm.04_13
p2874
I2871
sVm.0d_wr7
p2875
I2872
sVm.0bnpc9l
p2876
I2873
sVm.05r60w
p2877
I2874
sVm.01r6s5
p2878
I2875
sVm.04j35cb
p2879
I2876
sVm.04lf4_8
p2880
I2877
sVm.03wd8ks
p2881
I2878
sVm.0ystqsq
p2882
I2879
sVm.0g9zrgg
p2883
I2880
sVm.06x0s_
p2884
I2881
sVm.0y5wwy6
p2885
I2882
sVm.0gwwcp6
p2886
I5459
sVm.05h9v7n
p2887
I2884
sVm.010dqk42
p2888
I2885
sVm.0yht3pb
p2889
I2886
sVm.06w6t1
p2890
I2887
sVm.0v0bdhp
p2891
I2888
sVm.051xp89
p2892
I2889
sVm.01z7v5
p2893
I2892
sVm.05yxmx7
p2894
I2893
sVm.0pc7130
p2895
I2894
sVm.03z9585
p2896
I2895
sVm.02pth35
p2897
I2896
sVm.0h667wr
p2898
I2897
sVm.012xwf
p2899
I1512
sVm.09v0xdp
p2900
I2899
sVm.0h667wf
p2901
I2900
sVm.06fqlk
p2902
I2901
sVm.03gh12r
p2903
I2902
sVm.0tkt9sb
p2904
I2903
sVm.0jxlh_1
p2905
I2904
sVm.02whslz
p2906
I2905
sVm.0h667w5
p2907
I2906
sVm.0dltr4h
p2908
I2907
sVm.0424m
p2909
I2908
sVm.04j28v2
p2910
I2909
sVm.01vzz96
p2911
I2910
sVm.0y5cmg6
p2912
I2911
sVm.03qk747
p2913
I2912
sVm.04gsxgr
p2914
I2913
sVm.0nfkw08
p2915
I2914
sVm.0d4htf
p2916
I2916
sVm.0fl9gg
p2917
I2917
sVm.0svr76s
p2918
I2918
sVm.052p61c
p2919
I2919
sVm.0w49z45
p2920
I2920
sVm.0wyb_hc
p2921
I2921
sVm.0hq8pcj
p2922
I2922
sVm.0ycrkp3
p2923
I2923
sVm.0t5hrsr
p2924
I2924
sVm.0h0_wky
p2925
I2925
sVm.01b61
p2926
I2926
sVm.0cp9vr_
p2927
I2927
sVm.0zw30sr
p2928
I2928
sVm.0z4qvrb
p2929
I2929
sVm.02qsfv
p2930
I2930
sVm.0n54w42
p2931
I2931
sVm.03k50
p2932
I2932
sVm.0zfn8tf
p2933
I2933
sVg.120w8g7k
p2934
I5515
sVm.02p76f9
p2935
I2934
sVm.03lrht
p2936
I2935
sVm.02p86pb
p2937
I2936
sVm.0v0j3tq
p2938
I1517
sVm.0hq8pc2
p2939
I2938
sVm.0hq8pc9
p2940
I2939
sVm.0hhxn34
p2941
I2940
sVm.02p0qmm
p2942
I2941
sVm.0bvzj_f
p2943
I2942
sVm.06c97
p2944
I2943
sVm.0gh5zw9
p2945
I2944
sVm.05nf4_l
p2946
I2945
sVm.0pbxdtf
p2947
I2946
sVm.0pc6_ll
p2948
I2947
sVm.02rk625
p2949
I2948
sVm.0h57fhs
p2950
I2949
sVm.0dpqc0
p2951
I2950
sVm.09j29w
p2952
I2951
sVm.05tyg5
p2953
I2952
sVm.06w4j2x
p2954
I2953
sVm.0h5k_nq
p2955
I2954
sVg.120qct0c
p2956
I2955
sVm.0y53k_2
p2957
I2956
sVm.0vmy7xt
p2958
I2957
sVm.0h0_4_n
p2959
I2958
sVm.03c6jy
p2960
I2959
sVm.0vmyccf
p2961
I2960
sVm.0ddqd
p2962
I2961
sVm.01npcy7
p2963
I2962
sVm.0h5vhzj
p2964
I2963
sVm.0gw5356
p2965
I2964
sVm.0fqcty
p2966
I2965
sVm.0yctn2h
p2967
I2966
sVm.09k5kmz
p2968
I2967
sVm.0yhsmg1
p2969
I5451
sVm.01_d4
p2970
I2968
sVm.0vvh2mm
p2971
I2969
sVm.02sqkh
p2972
I16
sVm.0y8_1sh
p2973
I2971
sVm.0h2j5rq
p2974
I2972
sVm.05s077
p2975
I2973
sVm.0yhrw6v
p2976
I2974
sVm.0ngxr4w
p2977
I2975
sVm.03d_3t
p2978
I2976
sVm.04_87t5
p2979
I2977
sVm.0bwd5
p2980
I2978
sVm.03kl2h
p2981
I2979
sVm.077knp
p2982
I2980
sVm.09gn9qz
p2983
I41
sVm.01jgw_
p2984
I45
sVm.0y5cn5w
p2985
I2983
sVm.03whjr
p2986
I2984
sVm.0h0hl3
p2987
I2985
sVm.07vwht
p2988
I70
sVm.0v1kw9l
p2989
I2987
sVm.0y5wrrw
p2990
I2988
sVm.0hz1wxb
p2991
I2989
sVm.09vv07z
p2992
I2990
sVm.0n4g112
p2993
I2991
sVm.09p0q
p2994
I2992
sVm.06xv1vj
p2995
I2993
sVm.0hq75kb
p2996
I2994
sVm.0pbzj6l
p2997
I2995
sVm.0y85l1t
p2998
I2996
sVm.0t_hylz
p2999
I2997
sVm.0h877ps
p3000
I2998
sVm.080v2
p3001
I2999
sVm.068gyp
p3002
I3000
sVm.01pgp6
p3003
I3001
sVm.02700g4
p3004
I174
sVm.03lvwp
p3005
I5892
sVm.04rlf
p3006
I194
sVm.0k6tb
p3007
I3004
sVm.0zfnnbq
p3008
I3005
sVm.04gv3db
p3009
I212
sVm.0z44bfc
p3010
I3007
sVm.0gh6m_x
p3011
I3008
sVm.0zfn7vw
p3012
I3009
sVm.0v9n3sn
p3013
I3010
sVm.0gkyk9r
p3014
I3011
sVm.0bvddn3
p3015
I490
sVm.0_qyktk
p3016
I3013
sVm.0bh7nkb
p3017
I3014
sVm.0p8b5g0
p3018
I3015
sVm.0b_54z
p3019
I3016
sVm.0w4fbhm
p3020
I260
sVm.047qh9b
p3021
I4438
sVm.01wmlss
p3022
I3019
sVm.0y5mcdl
p3023
I3020
sVm.05g49
p3024
I3021
sVm.026wv9h
p3025
I3022
sVm.0pcdz2q
p3026
I3023
sVm.06fqc56
p3027
I3024
sVm.0y53pbn
p3028
I3025
sVm.02r79_h
p3029
I3026
sVm.0k6_bjk
p3030
I3027
sVm.0gyjlh3
p3031
I3028
sVm.0yj86vc
p3032
I3029
sVm.0bv_2fz
p3033
I3030
sVm.0ngvtb_
p3034
I3031
sVm.0kn8475
p3035
I3032
sVm.0h34mld
p3036
I3033
sVm.01vtqml
p3037
I3034
sVm.0crss4h
p3038
I3035
sVm.02hwn_7
p3039
I3036
sVm.07zhjj
p3040
I3037
sVm.0dxmg_
p3041
I3038
sVm.07y296
p3042
I3039
sVm.0bv_2f6
p3043
I3040
sVm.0fkm7
p3044
I3041
sVm.06pb74
p3045
I3042
sVm.09s87d
p3046
I1377
sVm.06lp10
p3047
I417
sVm.0y5_d31
p3048
I425
sVm.0z44w9g
p3049
I3045
sVm.0cgjx8n
p3050
I3046
sVm.03nn2x4
p3051
I3047
sVm.0symg
p3052
I3048
sVm.02whrmv
p3053
I3049
sVm.016cff
p3054
I3050
sVm.0gxc20j
p3055
I3051
sVm.0y83sgp
p3056
I3052
sVm.02jrtt
p3057
I3053
sVm.0vn1wgz
p3058
I3054
sVm.08sn38
p3059
I3055
sVm.0gl0jh4
p3060
I3056
sVm.07_466
p3061
I3057
sVm.0wyqzsr
p3062
I3058
sVm.0697_g
p3063
I3059
sVm.02h7khq
p3064
I3060
sVm.03r0hh
p3065
I3061
sVm.0vmyf_0
p3066
I3062
sVm.0svr6fb
p3067
I3063
sVm.03cmrxk
p3068
I544
sVm.086m_8
p3069
I3065
sVm.02hxl30
p3070
I3066
sVm.02_8yds
p3071
I3067
sVm.0y852hf
p3072
I3068
sVm.05h3sgz
p3073
I496
sVm.04wdy5
p3074
I3070
sVm.09tm30c
p3075
I3071
sVm.04gl4c
p3076
I3072
sVm.0fwwkj
p3077
I3073
sVm.047lypf
p3078
I3074
sVm.07_lrt
p3079
I3075
sVm.0v300fl
p3080
I3076
sVm.0pc73w9
p3081
I3077
sVm.047sryj
p3082
I3078
sVm.03t4h6
p3083
I3079
sVm.0p19p23
p3084
I3080
sVm.0b79_ft
p3085
I3081
sVm.0yhsr0m
p3086
I3082
sVm.0svsd4d
p3087
I3083
sVm.0z4qssy
p3088
I3084
sVm.02rm_98
p3089
I3085
sVm.0crrmnr
p3090
I3086
sVm.02r5pys
p3091
I3087
sVm.04d_8lh
p3092
I3088
sVm.0p8gqsq
p3093
I3089
sVm.0gfg9jf
p3094
I3090
sVm.0tkrwvn
p3095
I3091
sVm.0y8zp94
p3096
I2484
sVm.0y61tx9
p3097
I3093
sVm.0_hq075
p3098
I3094
sVm.0bnpfl1
p3099
I3095
sVm.02nwdlg
p3100
I3096
sVm.078_8dm
p3101
I3097
sVm.04lzkc
p3102
I3098
sVm.02hqvzm
p3103
I4824
sVm.078_8dw
p3104
I3099
sVm.01xs01z
p3105
I2915
sVm.0y84_8t
p3106
I3101
sVm.05vsb7
p3107
I3102
sVm.06k3rm
p3108
I3103
sVm.03647x
p3109
I3104
sVm.0y8_83_
p3110
I3105
sVm.02h4rq6
p3111
I3106
sVm.0v40cdd
p3112
I3107
sVm.042fgh
p3113
I3108
sVm.0y7myqx
p3114
I3109
sVm.0p19cdc
p3115
I3110
sVm.07m168k
p3116
I3111
sVm.0vp42zz
p3117
I3112
sVm.0s935gk
p3118
I3113
sVm.01_89v_
p3119
I2492
sVm.04jcqg4
p3120
I3115
sVm.0y5c5wg
p3121
I3116
sVm.07bwjk
p3122
I3117
sVm.09dv0r
p3123
I3118
sVm.0y7zmg_
p3124
I3119
sVm.0vymm3v
p3125
I3120
sVm.02z24pp
p3126
I3121
sVm.0yj6hvv
p3127
I3122
sVm.0hrfg40
p3128
I3123
sVm.02wht4t
p3129
I3124
sVm.0svsjn1
p3130
I3125
sVm.0y83wnp
p3131
I5427
sVm.0v50pnq
p3132
I3127
sVm.03q2bd
p3133
I3128
sVm.0982bh
p3134
I994
sVm.026qstd
p3135
I3130
sVm.098by5
p3136
I3131
sVm.0mz73
p3137
I3132
sVm.0p18_77
p3138
I3133
sVm.0y5wr_k
p3139
I3134
sVm.0z5b_46
p3140
I3135
sVm.0gc8gf5
p3141
I3136
sVm.0yht17z
p3142
I3137
sVm.0gbm30w
p3143
I3138
sVm.0lcw1gn
p3144
I3139
sVm.03nm0
p3145
I3140
sVm.0y8_wlv
p3146
I3141
sVm.027xw1z
p3147
I3142
sVm.0_qykk7
p3148
I3143
sVm.034f7w
p3149
I3144
sVm.083q7
p3150
I3145
sVm.0dh80p
p3151
I3146
sVm.03ss47
p3152
I3147
sVm.0v1xg
p3153
I1088
sVm.03cqk46
p3154
I1096
sVm.04tchc
p3155
I3150
sVm.03jlpc
p3156
I3151
sVm.026nxcb
p3157
I3152
sVm.033fqh
p3158
I3153
sVm.0wyff3x
p3159
I3154
sVm.02knxyp
p3160
I3155
sVm.0tlxvhh
p3161
I1149
sVm.0vmy7z3
p3162
I3157
sVm.0v1kp0m
p3163
I3158
sVm.01xvjb
p3164
I3159
sVm.0vb38lm
p3165
I3160
sVm.0gy20m_
p3166
I3161
sVm.042v_gx
p3167
I3162
sVm.0v1kmph
p3168
I3163
sVm.0y85pqm
p3169
I1176
sVm.0dds9
p3170
I3165
sVm.0h1h6nr
p3171
I3166
sVm.054ng5
p3172
I3167
sVm.0h5scpw
p3173
I3168
sVm.0d5jxc
p3174
I4466
sVm.062zm5h
p3175
I3170
sVm.0yhst3x
p3176
I3171
sVm.0h5scpd
p3177
I3172
sVm.0bpgx
p3178
I3173
sVm.0h5scpm
p3179
I3174
sVm.03cxhsg
p3180
I3175
sVm.0hrdg1w
p3181
I3176
sVm.04cqrzb
p3182
I3177
sVm.02q2jkb
p3183
I3178
sVm.04f383p
p3184
I3179
sVm.0bv8b_p
p3185
I3180
sVm.0vmydsn
p3186
I3181
sVm.01r52r
p3187
I3182
sVm.09gm86r
p3188
I3183
sVm.04l4rt
p3189
I3184
sVm.01_6pgd
p3190
I3185
sVm.02hxrs_
p3191
I3186
sVm.0cwfgl
p3192
I3187
sVm.0v32ymf
p3193
I3188
sVm.0y7n6fy
p3194
I3189
sVm.08csr
p3195
I3190
sVm.0bvpvyy
p3196
I3191
sVm.0lcqk0y
p3197
I3192
sVm.026fvdw
p3198
I3193
sVm.025v0rv
p3199
I3194
sVm.03rrsc
p3200
I3195
sVm.0p0tdth
p3201
I3196
sVm.0kslcd
p3202
I3197
sVm.0wz9vjk
p3203
I3198
sVm.0vvhg8w
p3204
I3199
sVm.0y85mfq
p3205
I3200
sVm.0bnq_nh
p3206
I3201
sVm.03jz7ls
p3207
I3202
sVm.0y7n4xz
p3208
I3203
sVm.093xn8
p3209
I3204
sVm.0gy8kqb
p3210
I3205
sVm.0h2vzmf
p3211
I1423
sVm.060d2
p3212
I3207
sVm.0fzr_70
p3213
I3208
sVm.02bv9
p3214
I3209
sVm.02r2rh_
p3215
I3210
sVm.096646
p3216
I3211
sVm.0_w62bx
p3217
I3212
sVm.0zfn7t8
p3218
I3213
sVm.06dx35
p3219
I3214
sVm.0h5n0v3
p3220
I3215
sVm.0d4cxx
p3221
I2891
sVm.063dp0
p3222
I3217
sVm.0bnwsv
p3223
I3218
sVm.0h4r53
p3224
I3219
sVm.0y7zv4q
p3225
I1478
sVm.0d_8w0
p3226
I3221
sVm.0h5qgy8
p3227
I3222
sVm.0gl_8gb
p3228
I3223
sVm.020jtr
p3229
I3224
sVm.035szd
p3230
I3225
sVm.03m3vcc
p3231
I3226
sVm.0x15942
p3232
I3227
sVm.062p80
p3233
I3228
sVm.0sgq0z0
p3234
I3229
sVm.0p19tl_
p3235
I3230
sVm.0pc70l6
p3236
I3231
sVm.02wcg56
p3237
I3232
sVm.0gvd0lw
p3238
I3233
sVm.0gvd0ln
p3239
I3234
sVm.0cmf0m0
p3240
I3235
sVm.0fpmrlv
p3241
I3236
sVm.0pbxj79
p3242
I3237
sVm.0pc721x
p3243
I1627
sVm.0177cx
p3244
I3239
sVm.084nvn
p3245
I3240
sVm.0z451vm
p3246
I3241
sVm.0b90_r
p3247
I3242
sVm.01vv6_6
p3248
I3243
sVm.0463gb9
p3249
I3244
sVm.064j_8v
p3250
I3245
sVm.0rzrlg8
p3251
I3246
sVm.0h2kcs0
p3252
I3247
sVm.04lqy4g
p3253
I3248
sVm.0h1lb4b
p3254
I3249
sVm.02_7q96
p3255
I3250
sVm.0vp3q5v
p3256
I3251
sVm.0322yj
p3257
I527
sVm.047bl9d
p3258
I3253
sVm.0yj6h0t
p3259
I3254
sVm.01hp5
p3260
I3255
sVm.0y85q84
p3261
I3256
sVm.099c8n
p3262
I3257
sVm.0yd75p3
p3263
I3258
sVm.07h28t
p3264
I3259
sVm.0y7vntk
p3265
I3260
sVm.02z6w75
p3266
I3261
sVm.0y5_dj_
p3267
I3262
sVg.1269ntg6x
p3268
I3263
sVm.03qfnfs
p3269
I3264
sVm.025dp
p3270
I3265
sVm.0bq6ntw
p3271
I3266
sVm.0ds33
p3272
I3267
sVm.0y7npqf
p3273
I3268
sVm.02q7mq5
p3274
I4493
sVm.0y7zl0x
p3275
I3270
sVm.0wpqd53
p3276
I3271
sVm.043vwqs
p3277
I1794
sVm.09_sxt
p3278
I3273
sVm.0323y3
p3279
I3274
sVm.02_8yfs
p3280
I3275
sVm.0gbwht4
p3281
I3276
sVm.07g83p
p3282
I3277
sVm.0crs0sn
p3283
I3278
sVm.04pvw3
p3284
I534
sVm.0h2z5vt
p3285
I3280
sVm.0zfn9w7
p3286
I3281
sVm.05ss2z
p3287
I3282
sVm.0y4v703
p3288
I3283
sVm.0bntpjp
p3289
I3284
sVm.09rfh9
p3290
I3285
sVm.0kv5xw
p3291
I3286
sVm.02_bcst
p3292
I3287
sVm.0zfnk1l
p3293
I3288
sVm.0y7vpvj
p3294
I3289
sVm.0yhsz_7
p3295
I3290
sVm.0j5_3dv
p3296
I3291
sVm.0t5tch7
p3297
I3292
sVm.0yhsl_h
p3298
I3293
sVm.0zcfdtx
p3299
I3294
sVm.0gfffxx
p3300
I3295
sVm.011c3kfb
p3301
I3297
sVm.02vs_78
p3302
I3298
sVm.01cx_
p3303
I3299
sVm.0127rw
p3304
I3300
sVm.0dlsxn0
p3305
I3301
sVm.03h2wq9
p3306
I3302
sVm.0dp209
p3307
I3303
sVm.0vb3f3n
p3308
I3304
sVm.02prw2f
p3309
I3305
sVm.06x5s
p3310
I3306
sVm.02q25p8
p3311
I2013
sVm.04sfnz
p3312
I3308
sVm.0yhsc5s
p3313
I3309
sVm.0y53lp4
p3314
I3310
sVm.0y5c65_
p3315
I3311
sVm.0127r1
p3316
I3312
sVm.0w49vy2
p3317
I3313
sVm.0y7vjhx
p3318
I3314
sVm.0pbxlmz
p3319
I3315
sVm.0y5cf2z
p3320
I3316
sVm.05pxb2t
p3321
I3317
sVm.0y53mvg
p3322
I3318
sVm.05pxb2j
p3323
I3319
sVm.0d8scq
p3324
I3320
sVm.09gd21j
p3325
I3321
sVm.0fnm8l
p3326
I3322
sVm.0y7ndxn
p3327
I3323
sVm.02rjtfw
p3328
I3324
sVm.0yhsjzx
p3329
I3325
sVm.0y856zc
p3330
I3326
sVm.0vymjg9
p3331
I3327
sVm.0yhsptz
p3332
I3328
sVm.027j2sf
p3333
I3329
sVm.0y60v5l
p3334
I3330
sVm.075pbp3
p3335
I3331
sVm.0jwd8dr
p3336
I3332
sVm.0h5kkbq
p3337
I3333
sVm.0703dp
p3338
I3334
sVm.0p8t1q1
p3339
I3335
sVm.0y7n171
p3340
I3336
sVm.03wcq72
p3341
I2224
sVm.054by5
p3342
I3338
sVm.0_ly8p2
p3343
I3339
sVm.03rpvs
p3344
I3340
sVm.063kkg
p3345
I3341
sVm.0x2fg
p3346
I3342
sVm.06wcgdz
p3347
I4506
sVm.07y5rg
p3348
I3345
sVm.0p18w_7
p3349
I3346
sVm.0252jt6
p3350
I3347
sVm.0y85l49
p3351
I548
sVm.0z454_w
p3352
I3349
sVm.0_qykm4
p3353
I2283
sVm.0ckr39
p3354
I3351
sVm.0z4njrf
p3355
I2528
sVm.06_x996
p3356
I3353
sVm.0cdg83
p3357
I3354
sVm.0y7nq8y
p3358
I3355
sVm.02kds84
p3359
I3356
sVm.03ttr9
p3360
I3357
sVm.0yhsrzz
p3361
I3358
sVm.0z4lmj2
p3362
I3359
sVm.0y7zt5f
p3363
I3360
sVm.0gx9rvq
p3364
I3361
sVm.0yj6br1
p3365
I3362
sVm.0_qykmy
p3366
I3363
sVm.0bwfqmq
p3367
I3364
sVm.097cmg
p3368
I3365
sVm.06974q
p3369
I3366
sVm.0407vb6
p3370
I3367
sVm.0bvpvzq
p3371
I3368
sVm.0vmycg9
p3372
I3369
sVm.0v9n4yk
p3373
I3370
sVm.04lgyqk
p3374
I3371
sVm.0y7n5x1
p3375
I3372
sVm.09v6y1
p3376
I3373
sVm.0yhs_qp
p3377
I3374
sVm.0bvpvzf
p3378
I3375
sVm.04627d5
p3379
I3376
sVm.0gqwc
p3380
I3377
sVm.0j_kmnt
p3381
I552
sVm.0pbxgtr
p3382
I3379
sVm.07_by1
p3383
I3380
sVm.0y5mfsp
p3384
I3381
sVm.0yd6ryl
p3385
I3382
sVm.0gxt5ln
p3386
I3383
sVm.02lk42
p3387
I2463
sVm.07g13_
p3388
I3385
sVm.04627dx
p3389
I3386
sVm.0hhqv27
p3390
I3387
sVm.01r2l
p3391
I3388
sVm.0y58f22
p3392
I3389
sVm.0y7nqpw
p3393
I3390
sVm.0199wf
p3394
I3391
sVm.06xt80
p3395
I3392
sVm.05b6rdt
p3396
I3393
sVm.0v1l4lx
p3397
I3394
sVm.0y5khnz
p3398
I3395
sVm.075wx89
p3399
I3396
sVm.0h5nqj_
p3400
I3397
sVm.0y5x1wm
p3401
I3398
sVm.0gmblvq
p3402
I3399
sVm.0ydyn0d
p3403
I3400
sVm.0y85mdp
p3404
I3401
sVm.02ps_nz
p3405
I3402
sVm.06xt8r
p3406
I3403
sVm.0hzbyr1
p3407
I3404
sVm.0g4tknw
p3408
I3405
sVm.011rh2d2
p3409
I3406
sVm.0y84nlt
p3410
I3407
sVm.02tk74
p3411
I3408
sVm.0y83wgp
p3412
I3409
sVm.026ntxk
p3413
I2648
sVm.066ryq
p3414
I3411
sVm.0y84sk9
p3415
I3412
sVm.0dyxgg
p3416
I3413
sVm.03wd8_8
p3417
I3414
sVm.03bx2lk
p3418
I3415
sVm.0h5jb21
p3419
I3416
sVm.0815dq
p3420
I3417
sVm.0vx6zv7
p3421
I3418
sVm.0vymqs5
p3422
I3419
sVm.05f7jsw
p3423
I3420
sVm.0hmm7
p3424
I4519
sVm.03j0z8
p3425
I3422
sVm.060bp
p3426
I3423
sVm.0gy7ggr
p3427
I3424
sVm.0y84kyl
p3428
I3425
sVm.0pk6_
p3429
I4521
sVm.05vtw
p3430
I3427
sVm.0w4b76c
p3431
I3428
sVm.09q23x
p3432
I3429
sVm.0v45_h_
p3433
I3430
sVm.0ds2_k2
p3434
I3431
sVm.0vx5nbc
p3435
I3432
sVm.043vtk
p3436
I3433
sVm.0g60z
p3437
I3434
sVm.09l09c
p3438
I3435
sVm.011qbnzy
p3439
I3436
sVm.0y5wlh7
p3440
I3437
sVm.04jd6hc
p3441
I3438
sVm.0v271ck
p3442
I3439
sVm.0964y5
p3443
I3440
sVm.0y85wdr
p3444
I3441
sVm.0p191jh
p3445
I3442
sVm.0358x_
p3446
I3443
sVm.0dbzg
p3447
I3444
sVm.0b73wst
p3448
I3445
sVm.05lv5f
p3449
I3446
sVm.013z1n
p3450
I3447
sVm.0268z4g
p3451
I3448
sVm.0y5cjv4
p3452
I3449
sVm.0v9n413
p3453
I3450
sVm.02jx1
p3454
I3451
sVm.0gwdh3q
p3455
I3452
sVm.0gwdh3z
p3456
I3453
sVm.0tl4drt
p3457
I3454
sVm.0gwdh3c
p3458
I3455
sVm.0vx6_2d
p3459
I3456
sVm.0hgcctq
p3460
I3457
sVm.043zbby
p3461
I3458
sVm.07hh2m
p3462
I3459
sVm.0270qwm
p3463
I3460
sVm.07wwkwc
p3464
I3461
sVm.0bm6hdf
p3465
I574
sVm.03g9xj
p3466
I3463
sVm.02_1y_3
p3467
I3464
sVm.071fb
p3468
I3465
sVm.07wwkwz
p3469
I3466
sVm.02_1y_9
p3470
I3467
sVm.0gbxfxq
p3471
I3468
sVm.0y84q0c
p3472
I3469
sVm.0y60svx
p3473
I3470
sVm.0z4pwwq
p3474
I3471
sVm.0yd9f7c
p3475
I3472
sVm.0h548v3
p3476
I3473
sVm.0n9gl2m
p3477
I3474
sVm.0jwr9
p3478
I3475
sVm.0n9gl2v
p3479
I3476
sVm.04jdhqr
p3480
I3477
sVm.02002f
p3481
I3478
sVm.0g9k1c
p3482
I3479
sVm.0yhqhlv
p3483
I3480
sVm.02_1y_h
p3484
I3481
sVm.013zdg
p3485
I3482
sVg.1233g0sk
p3486
I3483
sVm.03w9g3j
p3487
I3484
sVm.026dx0b
p3488
I3485
sVm.02jx3y
p3489
I3486
sVm.0svr6jp
p3490
I3487
sVm.05y31z
p3491
I3488
sVm.0gc08qp
p3492
I3489
sVm.031778
p3493
I3490
sVm.061rtt
p3494
I3491
sVm.05g3kb
p3495
I3492
sVm.0pc72pk
p3496
I5484
sVm.02hwsll
p3497
I3494
sVm.0v0blpq
p3498
I3495
sVm.0j749
p3499
I3496
sVm.04lgt_p
p3500
I3497
sVm.04yg_nh
p3501
I3498
sVm.07zrf
p3502
I3499
sVm.0cl9ky0
p3503
I3500
sVm.074nmf
p3504
I3501
sVm.0dgqp5b
p3505
I3502
sVm.03177r
p3506
I3503
sVm.05ss0g
p3507
I3504
sVm.02kbj8p
p3508
I3505
sVm.05h9vf5
p3509
I3506
sVm.0yx_w
p3510
I3507
sVm.0x0t2rd
p3511
I3508
sVm.0swmp28
p3512
I3509
sVm.0h13r
p3513
I584
sVm.02_3pws
p3514
I3511
sVm.08gjdy
p3515
I3512
sVm.04nh8r
p3516
I3513
sVm.02v5nx
p3517
I3514
sVm.0yj6nd4
p3518
I3515
sVm.0v1kvf_
p3519
I3516
sVm.05_fz9q
p3520
I3517
sVm.0g53gd7
p3521
I3518
sVm.01lyy43
p3522
I3519
sVm.07ntwdh
p3523
I3520
sVm.0_8727j
p3524
I3521
sVm.0yj6r_g
p3525
I3522
sVm.0vyn4xy
p3526
I3523
sVm.024lff
p3527
I3524
sVm.057r94
p3528
I3525
sVm.0y5c630
p3529
I3526
sVm.05zq5_
p3530
I3527
sVm.01xs05r
p3531
I3528
sVm.0pbxlkf
p3532
I3529
sVm.01xs05k
p3533
I1439
sVm.05yr5j_
p3534
I3531
sVm.01xs05c
p3535
I3532
sVm.0c6vx0
p3536
I3533
sVm.0hzc9m5
p3537
I3534
sVm.0dsd06
p3538
I3535
sVm.05yr5jt
p3539
I3536
sVm.0yhsqt0
p3540
I3537
sVm.0653m
p3541
I3538
sVm.0bhn38
p3542
I3539
sVm.02vl5s7
p3543
I3540
sVm.0703b7
p3544
I3541
sVm.0w49ykl
p3545
I3542
sVm.0y5mg1r
p3546
I3543
sVm.0h1j6_c
p3547
I3544
sVm.02wk69
p3548
I3545
sVm.08dk10
p3549
I3546
sVm.04yk_21
p3550
I3547
sVm.0808b4c
p3551
I3548
sVm.09gdh6k
p3552
I3549
sVm.059wfr
p3553
I3550
sVm.0pc74qm
p3554
I3551
sVm.011ln5
p3555
I3552
sVm.0y85nc2
p3556
I3553
sVm.04j1g18
p3557
I3554
sVm.0zcbl
p3558
I3555
sVm.03gt6h4
p3559
I3556
sVm.0v414dy
p3560
I3557
sVm.04zhr2r
p3561
I3558
sVm.0h5hzmp
p3562
I3559
sVm.0fjmbk
p3563
I3560
sVm.04zhr2b
p3564
I3561
sVm.06ys2
p3565
I3562
sVm.0yhsl9s
p3566
I3563
sVm.0z44tjt
p3567
I3564
sVm.03yw84x
p3568
I3565
sVm.05p84m
p3569
I3566
sVm.066_m3
p3570
I3567
sVm.0vx58v6
p3571
I3568
sVm.0bnx0h
p3572
I3569
sVm.0d91cj
p3573
I3570
sVm.0w2d91_
p3574
I3571
sVm.0f2y0
p3575
I3572
sVm.069qj0
p3576
I3573
sVm.07wp6d
p3577
I3574
sVm.058cm
p3578
I3575
sVm.03nt7j
p3579
I3576
sVm.0vyn5k7
p3580
I3577
sVm.0fkzq
p3581
I3578
sVm.04627f7
p3582
I3579
sVm.0yhskkg
p3583
I3580
sVm.010f7s79
p3584
I3581
sVm.01p6_6v
p3585
I3582
sVm.038np6
p3586
I3583
sVm.06s5ct
p3587
I3584
sVm.05dns9j
p3588
I3585
sVm.04627f_
p3589
I3586
sVm.0y8527x
p3590
I3587
sVm.0j_7mvf
p3591
I3588
sVm.02pnb89
p3592
I3589
sVm.0vx6g_5
p3593
I3590
sVm.04627fm
p3594
I3591
sVm.02lk60
p3595
I3592
sVm.0vmy7v_
p3596
I3593
sVm.05fkhv
p3597
I3594
sVm.0h37g19
p3598
I3595
sVm.0ddf2bm
p3599
I3596
sVm.0l8z1
p3600
I3597
sVm.0djb1k7
p3601
I3598
sVm.04mctc
p3602
I3600
sVm.0hcdwhw
p3603
I3601
sVm.0gwnrnd
p3604
I3602
sVm.0gdl14
p3605
I3603
sVm.01z11ns
p3606
I3604
sVm.07bj76
p3607
I3605
sVm.0clh4y
p3608
I3606
sVm.0_z9qv6
p3609
I3607
sVm.0z5bf2k
p3610
I3608
sVm.0v1kmtn
p3611
I3609
sVm.09gmzh
p3612
I3610
sVm.01w1vt
p3613
I3611
sVm.0bxmz6
p3614
I3612
sVm.0c8jw
p3615
I3613
sVm.0dpq1q
p3616
I3614
sVm.0b_jkk5
p3617
I3615
sVm.08959
p3618
I3616
sVm.0gl_8c7
p3619
I3617
sVm.0g_sv
p3620
I3618
sVm.0cs1s8n
p3621
I3620
sVm.0pbxh5k
p3622
I3621
sVm.0g6kfj
p3623
I3622
sVm.0ryt9m1
p3624
I3623
sVm.0p19nvd
p3625
I3624
sVm.0125zrjx
p3626
I3625
sVm.0gl_8cs
p3627
I3626
sVm.0gl_8cj
p3628
I3627
sVm.08pfmb
p3629
I3628
sVm.0hyqs7h
p3630
I3629
sVm.0bj9lf9
p3631
I3630
sVm.0crr_w6
p3632
I3631
sVm.0y8_fzt
p3633
I3632
sVm.05t_y_k
p3634
I3633
sVm.0cc2r_
p3635
I3634
sVm.03dpqgc
p3636
I3635
sVm.0vb4lhg
p3637
I3636
sVm.0gwdh15
p3638
I3637
sVm.0y7n787
p3639
I3638
sVm.0gkw0gc
p3640
I3639
sVm.037j45
p3641
I3640
sVm.0cn7nb
p3642
I3641
sVm.0yht30t
p3643
I3642
sVm.09k6jsy
p3644
I3643
sVm.0v1klkl
p3645
I3644
sVm.09vv0d6
p3646
I3645
sVm.0c00zd0
p3647
I3646
sVm.020h5q
p3648
I3647
sVm.0h1gh0w
p3649
I3648
sVm.0gwdh1v
p3650
I3649
sVm.0y5mcn1
p3651
I3650
sVm.0y7n5_m
p3652
I3651
sVm.092rw6
p3653
I3652
sVm.03yzd3
p3654
I3653
sVm.0fplq9
p3655
I3654
sVm.0z447y3
p3656
I3655
sVm.0gwdh1h
p3657
I3656
sVm.043frw
p3658
I3658
sVm.01n1tq
p3659
I3659
sVm.026nyvh
p3660
I5517
sVm.0y7m_cv
p3661
I3661
sVm.03cx64_
p3662
I3662
sVm.0blvtr
p3663
I3663
sVm.095k_x
p3664
I3664
sVm.03bx1h9
p3665
I4875
sVm.0d8kg5g
p3666
I3665
sVm.02q1mwf
p3667
I3666
sVm.019f6s
p3668
I3667
sVm.04jc34s
p3669
I3668
sVm.06lp7t
p3670
I3670
sVm.0pbxmld
p3671
I3671
sVm.027fwmt
p3672
I3672
sVm.05k4my
p3673
I3673
sVm.03w9g1y
p3674
I3674
sVm.01wblpp
p3675
I3675
sVm.09435s
p3676
I3676
sVm.0hhggmy
p3677
I3677
sVm.0y904c5
p3678
I3678
sVm.04f3vnt
p3679
I3679
sVm.06jwtk
p3680
I3680
sVm.01_7mym
p3681
I3681
sVm.0yj7tq_
p3682
I3682
sVm.05bl7x_
p3683
I3683
sVm.08712w
p3684
I3684
sVm.06znd3n
p3685
I3685
sVm.05h9vdj
p3686
I3686
sVm.079m5z
p3687
I3687
sVm.0hc3gqb
p3688
I3688
sVm.01v94gv
p3689
I3689
sVm.0g57wgv
p3690
I3690
sVm.0d_x4y
p3691
I3691
sVm.0bf79w
p3692
I3692
sVm.08pvck
p3693
I3693
sVm.0wpq22z
p3694
I3694
sVm.0ydwft_
p3695
I3695
sVm.08h_w9
p3696
I3696
sVm.0ydxhp6
p3697
I3697
sVm.0gvt8mj
p3698
I3698
sVm.025s5lg
p3699
I3699
sVm.0w49y5w
p3700
I3700
sVm.05h9vd8
p3701
I3701
sVm.0h2gzqh
p3702
I3702
sVm.0yhrvq0
p3703
I3703
sVm.07cgs9p
p3704
I3704
sVm.0cjx6q
p3705
I3705
sVm.02pnl9j
p3706
I3706
sVm.0nh4bl2
p3707
I3707
sVm.05nl81x
p3708
I3708
sVm.0krsjq
p3709
I3709
sVm.04gb4fx
p3710
I3710
sVm.0z4n7pk
p3711
I4479
sVm.0y4y7jj
p3712
I3712
sVm.01pm0_
p3713
I3713
sVm.0tkrwp1
p3714
I3714
sVm.0gfh08s
p3715
I3715
sVm.0p7pn6y
p3716
I3716
sVm.0bwm0yf
p3717
I3717
sVm.0vvhfk6
p3718
I4548
sVm.0y5c61c
p3719
I3719
sVm.047qxyq
p3720
I3720
sVm.0yhsy10
p3721
I3721
sVm.02mh4b
p3722
I3722
sVm.0y7n5gt
p3723
I3723
sVm.0kcn7
p3724
I3725
sVm.04tyw7
p3725
I3726
sVm.0306c6
p3726
I3727
sVm.04f285v
p3727
I3728
sVm.0c6mk6
p3728
I3729
sVm.0mv325c
p3729
I3730
sVm.03g3w
p3730
I3731
sVm.0y85qt1
p3731
I3732
sVm.07x6zk
p3732
I3733
sVm.0gxf6zq
p3733
I3734
sVm.02bqvs
p3734
I3735
sVm.03nm_fh
p3735
I3736
sVm.0gc4hkp
p3736
I3737
sVm.0gy7hz5
p3737
I3738
sVm.0y7vmvl
p3738
I3739
sVm.0cz8dc4
p3739
I3740
sVm.02x2gy0
p3740
I3741
sVm.0h0hyj
p3741
I3742
sVm.0cyjvw
p3742
I5536
sVm.07wpxy
p3743
I3744
sVm.0ghsvgq
p3744
I3745
sVm.03c54bj
p3745
I3746
sVm.02_wph6
p3746
I3747
sVm.0vx58td
p3747
I3748
sVm.0ds11z
p3748
I3749
sVm.0zn83k8
p3749
I2591
sVm.047d4bz
p3750
I3751
sVm.0528j_t
p3751
I3752
sVm.060sj1
p3752
I3753
sVm.0hhs76t
p3753
I3754
sVg.1237_s0g
p3754
I3755
sVm.011nks8c
p3755
I3756
sVm.01y5pl
p3756
I3757
sVm.07s5j4p
p3757
I3758
sVm.0dfw0
p3758
I3759
sVm.0sgq26k
p3759
I3760
sVm.0dwyxv
p3760
I3761
sVm.0276t8b
p3761
I3762
sVg.122r2qh_
p3762
I3763
sVm.0vx6w31
p3763
I3764
sVm.0345h
p3764
I3765
sVm.0gh65c5
p3765
I3766
sVm.0h4qzxv
p3766
I3767
sVm.0y7vkpn
p3767
I3768
sVm.040ntm
p3768
I3769
sVm.0x25vr8
p3769
I3770
sVm.0272l8m
p3770
I3771
sVm.0f8j13
p3771
I3772
sVm.0b7b7v4
p3772
I3773
sVm.0y5mfw9
p3773
I3774
sVm.0cj5p_4
p3774
I3775
sVm.09vw7m6
p3775
I3776
sVm.0vmy7pf
p3776
I3777
sVm.02kbqmz
p3777
I3778
sVm.05sr4z8
p3778
I3779
sVm.05sr4z2
p3779
I3780
sVm.0ydw8tw
p3780
I3781
sVm.02pz87y
p3781
I3782
sVm.0v2cc
p3782
I3783
sVm.0z450w7
p3783
I3784
sVm.0ngr75m
p3784
I3785
sVm.05sr4zk
p3785
I3786
sVm.0j5lh91
p3786
I1218
sVm.05sr4zn
p3787
I3787
sVm.05sr4zg
p3788
I3788
sVm.06p361
p3789
I3789
sVm.0h16tjw
p3790
I3790
sVm.02z3r8t
p3791
I3791
sVm.05sr4zv
p3792
I3792
sVm.047nfz
p3793
I3793
sVm.05l7bl
p3794
I3794
sVm.0vmybs7
p3795
I3795
sVm.07_9_
p3796
I3796
sVm.04dx30j
p3797
I3797
sVm.0w1x_rx
p3798
I3798
sVm.01hwkn
p3799
I3799
sVm.0gkm8vw
p3800
I3800
sVm.0y7zlrk
p3801
I3801
sVm.0fsb_6
p3802
I3802
sVg.1215cht4
p3803
I3803
sVm.01xh79
p3804
I3804
sVm.0gwz9sl
p3805
I3805
sVm.0y84w3v
p3806
I3806
sVm.0dj5tkc
p3807
I3807
sVm.0p8g0zq
p3808
I3808
sVm.06zkfsy
p3809
I3809
sVm.04t3_
p3810
I3810
sVm.0b6zz6k
p3811
I3811
sVm.03rgp1
p3812
I3812
sVm.0rzrchj
p3813
I3813
sVm.0256985
p3814
I3814
sVm.0p19v59
p3815
I3815
sVm.04h9h
p3816
I3816
sVm.05zppz
p3817
I5551
sVm.05lmdrm
p3818
I5191
sVm.02_382h
p3819
I3819
sVm.03y1ns4
p3820
I3820
sVm.0drf_
p3821
I3821
sVm.02_382p
p3822
I3822
sVm.08ndlxb
p3823
I3823
sVm.02_382w
p3824
I3824
sVm.075qytk
p3825
I3825
sVm.042w0v2
p3826
I3826
sVm.075qytg
p3827
I3827
sVm.01pcw4
p3828
I3828
sVm.0p0tkgl
p3829
I3829
sVm.0gvsynb
p3830
I3830
sVm.025t3bg
p3831
I3831
sVm.05lmdr9
p3832
I3832
sVm.02_3823
p3833
I5261
sVm.02_3829
p3834
I3834
sVm.0dz5yg
p3835
I3835
sVm.0t5wpv1
p3836
I3836
sVm.0p19pr2
p3837
I3837
sVm.03dv05c
p3838
I3838
sVm.05pctb
p3839
I3839
sVm.0myfzyg
p3840
I3840
sVm.08cgmr
p3841
I3841
sVm.02khs
p3842
I3842
sVm.07sbp13
p3843
I3843
sVm.0630r8
p3844
I3844
sVm.0t_6mn_
p3845
I3845
sVm.06w5c6
p3846
I3846
sVm.059_v7b
p3847
I3847
sVm.0gcd3kw
p3848
I3848
sVm.0cqgl9
p3849
I3849
sVm.02x75tr
p3850
I3850
sVm.07nftm6
p3851
I3851
sVm.048zv9l
p3852
I3852
sVm.03tzmr
p3853
I3853
sVm.0w2z7hn
p3854
I3854
sVm.0g_qz
p3855
I3855
sVm.04jjvq6
p3856
I3856
sVm.04_p5wb
p3857
I3857
sVm.0y5ht6k
p3858
I3858
sVm.0v1kqwg
p3859
I3859
sVm.0qzrgg5
p3860
I3860
sVm.0yd5jzc
p3861
I3861
sVm.05spcwl
p3862
I3862
sVm.019f4d
p3863
I3863
sVm.043n192
p3864
I3864
sVm.0ydy912
p3865
I3865
sVm.01ptn1
p3866
I3866
sVm.02hxgcj
p3867
I3867
sVm.019f4v
p3868
I3868
sVm.0z4ngqf
p3869
I3869
sVm.0k_9j
p3870
I3870
sVm.02hpz31
p3871
I3871
sVm.072f09
p3872
I3872
sVm.0y85q2g
p3873
I3873
sVm.0ppgt66
p3874
I3874
sVm.0y5ht60
p3875
I3875
sVm.025672b
p3876
I3876
sVm.09c7w0
p3877
I3877
sVm.0y8_p7b
p3878
I3878
sVm.0df7k7
p3879
I3879
sVm.09p28vl
p3880
I3880
sVm.0y851tg
p3881
I3881
sVm.05n_wbq
p3882
I3882
sVm.0gy9znj
p3883
I3883
sVm.0d56y5
p3884
I3884
sVm.0kvj91d
p3885
I3885
sVm.07pr5y
p3886
I3886
sVm.0y4h2_5
p3887
I3887
sVm.05zjd
p3888
I3888
sVm.0v3bhk8
p3889
I3889
sVm.0pxg309
p3890
I3890
sVm.0cd78
p3891
I3891
sVm.0y8_xqn
p3892
I3892
sVm.08kyl2
p3893
I3893
sVm.0svsq_l
p3894
I3894
sVm.0vs4r4w
p3895
I3895
sVm.0yhsht8
p3896
I3896
sVm.0355cw
p3897
I5566
sVm.03s2tm
p3898
I3898
sVm.0126mm
p3899
I2890
sVm.0ds96_p
p3900
I5567
sVm.0gz58sz
p3901
I3901
sVm.0v1kr6j
p3902
I3902
sVm.03xgp0
p3903
I3903
sVm.0zfn8g2
p3904
I3904
sVm.027qqjx
p3905
I1670
sVm.0nh4bnn
p3906
I3906
sVm.0mz2
p3907
I3907
sVm.0y7zpx3
p3908
I3908
sVm.0dh94d0
p3909
I3909
sVm.0yd8csl
p3910
I3910
sVm.064wch
p3911
I3911
sVm.0v2_zlm
p3912
I3912
sVm.0gx3b6x
p3913
I3913
sVm.0y84_0n
p3914
I3914
sVm.0fq97v
p3915
I3915
sVm.04nkq71
p3916
I3916
sVm.07vr92g
p3917
I3917
sVm.0yhsf62
p3918
I3918
sVm.09v54x
p3919
I3919
sVm.0vxjzxr
p3920
I3920
sVm.0702x5
p3921
I3921
sVm.0y5mg5k
p3922
I3922
sVm.0crrxmw
p3923
I3923
sVm.0y5mg5r
p3924
I3924
sVm.0sw7yh_
p3925
I3925
sVm.02h_fwb
p3926
I3926
sVm.0r8p2ll
p3927
I3927
sVm.0bxhlyd
p3928
I3928
sVm.0j1d0x6
p3929
I3929
sVm.0j6n38m
p3930
I3930
sVm.0y5cl41
p3931
I3931
sVm.02_7k44
p3932
I3932
sVm.02814fp
p3933
I3933
sVm.0p8g3yx
p3934
I3934
sVm.0cl9ktn
p3935
I1675
sVm.0y7vmpg
p3936
I3936
sVm.0v1km0n
p3937
I3937
sVm.0j1d0xx
p3938
I3938
sVm.0z4576t
p3939
I3939
sVm.0j1d0xp
p3940
I3940
sVm.0ds8z57
p3941
I3941
sVm.0j1d0xf
p3942
I3942
sVm.0gxbggr
p3943
I3943
sVm.0yhstjm
p3944
I3944
sVm.0zw331l
p3945
I3945
sVm.0w2d4sc
p3946
I3946
sVm.08pbld
p3947
I3947
sVm.06nsv4
p3948
I3948
sVm.03n0cw
p3949
I3949
sVm.0cjcclc
p3950
I3950
sVm.0pc73fn
p3951
I1678
sVm.036y_2
p3952
I3952
sVm.07kg878
p3953
I3953
sVm.0gb2qg
p3954
I3954
sVm.01dz7z
p3955
I4596
sVm.0dddyx_
p3956
I3956
sVm.0p8fv8z
p3957
I3957
sVm.0gxbgg6
p3958
I3958
sVm.0x1xc_w
p3959
I3959
sVm.0yj88jb
p3960
I3960
sVm.01xdxy
p3961
I3961
sVm.0343h
p3962
I3962
sVm.03g33b
p3963
I3963
sVm.0crw8cx
p3964
I3964
sVm.0p19gxb
p3965
I3965
sVm.02r_3y2
p3966
I3966
sVm.09lycqx
p3967
I3967
sVm.04627b9
p3968
I3968
sVm.0lf9hfq
p3969
I3969
sVm.02r88lg
p3970
I3724
sVm.0h_dv23
p3971
I3971
sVm.05sr4x5
p3972
I3972
sVm.0462r7t
p3973
I3973
sVm.01y2hn6
p3974
I3974
sVm.07wp25
p3975
I3975
sVm.0gvgd
p3976
I3976
sVg.1hb_gps40
p3977
I3977
sVm.0gkyvdn
p3978
I3978
sVm.02dx_m
p3979
I3979
sVm.01_6v6w
p3980
I3980
sVm.01y2hnl
p3981
I3981
sVm.09g96w7
p3982
I3982
sVm.0pbxfqt
p3983
I5581
sVm.01y2hnd
p3984
I3984
sVm.0g55y74
p3985
I3985
sVm.04627bp
p3986
I3986
sVm.0tkt0bh
p3987
I3987
sVm.0h1ch6
p3988
I3988
sVm.05sr4xy
p3989
I3989
sVm.02vq616
p3990
I3990
sVm.04mcpg
p3991
I3991
sVm.0yj6svq
p3992
I3992
sVm.0hcdwlp
p3993
I3993
sVm.0bgk3cx
p3994
I3994
sVm.07cfqk7
p3995
I3995
sVm.0hcdwlx
p3996
I3996
sVm.0wz9vrn
p3997
I3997
sVm.0hcdwlg
p3998
I3998
sVm.0c2hmp3
p3999
I3999
sVm.0r9yvpc
p4000
I4000
sVm.0yp1cgq
p4001
I4001
sVm.0y5mgmp
p4002
I4002
sVm.0zbfgv_
p4003
I4003
sVm.0hcdwl7
p4004
I4004
sVm.026n4dt
p4005
I4005
sVm.0d34f9c
p4006
I4006
sVm.0t4wsdc
p4007
I4007
sVm.0nl8g
p4008
I4008
sVm.0vmybql
p4009
I4009
sVm.031t2d
p4010
I4010
sVm.0dzz6g
p4011
I4011
sVm.0cq3rw
p4012
I4012
sVm.0gwlg
p4013
I5585
sVm.0f2yjm
p4014
I4014
sVm.02yqnh
p4015
I4015
sVm.0yj6z4j
p4016
I4016
sVm.03wn1t
p4017
I4017
sVm.0pc746k
p4018
I4018
sVm.0cs14
p4019
I4020
sVm.0cs1xz0
p4020
I4021
sVm.0r5hvzh
p4021
I4022
sVg.12245v14
p4022
I4023
sVm.04y77wx
p4023
I4024
sVm.0y83vwl
p4024
I4025
sVm.01xpmwf
p4025
I2199
sVm.0h95927
p4026
I4026
sVm.0vx5k8f
p4027
I681
sVm.018w8
p4028
I4028
sVm.04j2_5k
p4029
I4029
sVm.0wp6xdq
p4030
I4030
sVm.0p0_6t1
p4031
I4031
sVm.0bv8bz9
p4032
I4032
sVm.0tl499q
p4033
I4033
sVm.0fdv3
p4034
I4034
sVm.0tj_r_m
p4035
I4035
sVm.0j5lh88
p4036
I4036
sVm.07nftkx
p4037
I4037
sVm.07nftkj
p4038
I4038
sVm.0y7ns11
p4039
I4039
sVm.0y7n2by
p4040
I4040
sVm.07lkbkq
p4041
I4042
sVm.0gj5940
p4042
I4043
sVm.0wpq3ny
p4043
I4044
sVm.0bv8bzy
p4044
I4045
sVm.03xx0x
p4045
I4046
sVm.03m4qxx
p4046
I4047
sVm.0pv54
p4047
I4048
sVm.0ntq7
p4048
I4049
sVm.0cw2fg
p4049
I4050
sVm.0j5lh8p
p4050
I4051
sVm.06mq7
p4051
I4052
sVm.07nftk3
p4052
I4053
sVm.0hkf
p4053
I4054
sVm.0277n14
p4054
I4055
sVm.0ft175
p4055
I4056
sVm.06dkjh
p4056
I4057
sVm.0gwdh58
p4057
I4058
sVm.05bnp0
p4058
I4059
sVm.0svr6p0
p4059
I4060
sVm.0v37ghd
p4060
I4061
sVm.0ydw4q7
p4061
I4062
sVm.0j_sncb
p4062
I4063
sVm.0y85m69
p4063
I4064
sVm.0h4ytp2
p4064
I4065
sVm.0y851xr
p4065
I2649
sVm.013q07
p4066
I4067
sVm.0_p48fl
p4067
I4068
sVm.07_gdn
p4068
I4069
sVm.0bvpv_0
p4069
I4070
sVm.0yhqk8g
p4070
I4071
sVm.0rfw6q2
p4071
I4072
sVm.0z5bddj
p4072
I4073
sVm.0h2yrz1
p4073
I4074
sVm.0w49wbt
p4074
I4075
sVm.0jwtj
p4075
I4076
sVm.0y5ht46
p4076
I4077
sVg.125_b_w7k
p4077
I4078
sVm.0p19c49
p4078
I4079
sVm.01jrbb
p4079
I4080
sVm.0bvpv_d
p4080
I4081
sVm.02qnzg
p4081
I4082
sVm.035141
p4082
I4083
sVm.0yhss_s
p4083
I4084
sVm.07xf6y
p4084
I4085
sVm.09gp2cp
p4085
I4086
sVm.014nkh
p4086
I4087
sVm.0gfl2wt
p4087
I4088
sVm.0275_l2
p4088
I4089
sVm.020gs9
p4089
I4090
sVm.01s81
p4090
I4091
sVm.0y851jk
p4091
I4092
sVm.0yhsp49
p4092
I4093
sVm.06_kh
p4093
I4094
sVm.0yd_xnw
p4094
I4095
sVm.07k6y04
p4095
I4096
sVm.0h7_060
p4096
I4097
sVm.0yhykmb
p4097
I4098
sVm.0yq3p6k
p4098
I5602
sVm.07n6phd
p4099
I4100
sVg.11b62w3281
p4100
I4101
sVm.07mpmj
p4101
I4102
sVm.05kq4
p4102
I4103
sVm.0y5cmp3
p4103
I4104
sVm.0135_65p
p4104
I4105
sVm.0gt3xt
p4105
I4106
sVm.0svr81h
p4106
I4107
sVm.0yhrt0x
p4107
I4108
sVm.03m9r4b
p4108
I4109
sVm.02w902j
p4109
I4110
sVm.06ztq_
p4110
I4111
sVm.014wxc
p4111
I4112
sVm.0bbv37_
p4112
I2659
sVm.0p8g5my
p4113
I4114
sVm.011m8xlz
p4114
I4115
sVm.01xljv1
p4115
I4116
sVm.0gxcbzh
p4116
I4117
sVm.01q24l
p4117
I4118
sVm.024fz9
p4118
I4119
sVm.0v407pk
p4119
I4120
sVm.0vtvdwd
p4120
I4121
sVm.0z4nn1t
p4121
I4122
sVm.0tlt1r9
p4122
I4123
sVm.0v3kq4c
p4123
I4124
sVm.0dq7xc
p4124
I4125
sVm.0h7p894
p4125
I4126
sVm.07wnvc
p4126
I4127
sVm.0yd_1lb
p4127
I4128
sVm.0df13_
p4128
I4129
sVm.02z2_s1
p4129
I4130
sVm.0cm0b6p
p4130
I4131
sVm.0g__d7
p4131
I4132
sVm.025v2m6
p4132
I4133
sVm.0gwdg_1
p4133
I4134
sVm.0f4rvf
p4134
I4135
sVm.0h2bh6v
p4135
I4136
sVm.0y85qh9
p4136
I4137
sVm.09m868
p4137
I4138
sVm.0v9n5vr
p4138
I4139
sVm.0py_0
p4139
I4140
sVm.023cjg
p4140
I4141
sVm.07b4vj
p4141
I4142
sVm.0gwdg_l
p4142
I4143
sVm.0cp0t91
p4143
I4144
sVm.05ztn3v
p4144
I4145
sVm.0l5_l
p4145
I4146
sVm.0400ts
p4146
I4147
sVm.0gwdg_x
p4147
I4148
sVm.093sg2
p4148
I4149
sVm.0hyq1j4
p4149
I1283
sVm.0fdmy8
p4150
I4151
sVm.047c6z3
p4151
I4152
sVm.0ydxbnv
p4152
I4153
sVm.01y5t6
p4153
I4154
sVm.04nm0n0
p4154
I1337
sVm.06qyd
p4155
I4156
sVm.0y5_cv2
p4156
I4157
sVm.02hxsf6
p4157
I4158
sVm.03tp5h
p4158
I4159
sVm.0gz5g21
p4159
I5617
sVm.02_1q9
p4160
I4161
sVm.06qyw
p4161
I4162
sVm.063yb4
p4162
I4163
sVm.0vx6z6n
p4163
I4164
sVm.02_775m
p4164
I4165
sVm.04kk1py
p4165
I4166
sVm.0155yx
p4166
I4167
sVm.01y5tq
p4167
I4168
sVm.0gxzq
p4168
I4169
sVm.02q4rf
p4169
I4170
sVm.01hmnh
p4170
I4171
sVm.09yl_w
p4171
I4172
sVm.0cr_klv
p4172
I4173
sVm.022jb6
p4173
I4174
sVm.0vmy62s
p4174
I4175
sVm.08ndqy
p4175
I4176
sVm.0fqrf9d
p4176
I4177
sVm.0bplqp
p4177
I4178
sVm.0gbwwnh
p4178
I4179
sVm.0dr13w
p4179
I4180
sVm.026jp1s
p4180
I4181
sVm.046279z
p4181
I4182
sVm.0cc3h6d
p4182
I4183
sVm.0y53pqk
p4183
I4184
sVm.0ggj4f
p4184
I4185
sVm.046279l
p4185
I4186
sVm.02pnv83
p4186
I4187
sVm.0tl48r1
p4187
I4188
sVm.0v9n4qc
p4188
I4189
sVm.0kpys4
p4189
I4190
sVm.0bjssy
p4190
I4191
sVm.011pypq1
p4191
I4192
sVm.02pcqvf
p4192
I4193
sVm.0b3wk
p4193
I4194
sVm.0bwgnl0
p4194
I4195
sVm.0462793
p4195
I4196
sVm.0vmy7l7
p4196
I4197
sVm.0h6hbzy
p4197
I5624
sVm.06yx4x
p4198
I4199
sVm.03cnxs8
p4199
I1616
sVm.0_ktwhk
p4200
I4201
sVm.0p19fll
p4201
I4202
sVm.01049t
p4202
I4203
sVm.01bl8s
p4203
I2677
sVm.02h7lk7
p4204
I4205
sVm.0hzjlmp
p4205
I4206
sVm.03vzd5
p4206
I4207
sVm.06cp5z
p4207
I4208
sVm.0cv7_6b
p4208
I4209
sVm.0gwdh0d
p4209
I4210
sVm.04n7gj2
p4210
I4211
sVm.0431h1
p4211
I4212
sVm.0gl4ml_
p4212
I4213
sVm.09qs_s
p4213
I4214
sVm.02701m9
p4214
I4215
sVm.0vb38b_
p4215
I4216
sVm.0z45syf
p4216
I4217
sVm.0y84rcn
p4217
I4218
sVm.09sh0h
p4218
I4219
sVm.05szq8z
p4219
I4220
sVm.0jmcv
p4220
I4221
sVm.047fzqv
p4221
I4222
sVm.0v1kndk
p4222
I4223
sVm.06zry95
p4223
I4224
sVm.0cryp_v
p4224
I4225
sVm.017jd9
p4225
I4226
sVm.0v9yy8m
p4226
I4227
sVm.02rtx1m
p4227
I4228
sVm.06qmrf
p4228
I4229
sVm.0cmdwwg
p4229
I4230
sVm.076xkps
p4230
I4231
sVm.0gyr549
p4231
I4232
sVm.05t38pq
p4232
I4233
sVm.0yht2c8
p4233
I4234
sVm.01s3vk
p4234
I4235
sVm.0hcdwn6
p4235
I4236
sVm.0p8fphg
p4236
I4237
sVm.046s7m
p4237
I4238
sVm.0crrc8
p4238
I4239
sVm.03bd4l
p4239
I4240
sVm.02wl2zc
p4240
I4646
sVm.0wpq2p8
p4241
I4242
sVm.095z_q
p4242
I4243
sVm.047ft7w
p4243
I4244
sVm.05t38p4
p4244
I4245
sVm.0c212
p4245
I4246
sVm.04ld_6p
p4246
I4247
sVm.0wz4gml
p4247
I4248
sVm.0bvz_t0
p4248
I4249
sVm.0wy8s_w
p4249
I4250
sVm.06v_2g
p4250
I4251
sVg.11b6tcdj0q
p4251
I4252
sVm.034bm_
p4252
I4253
sVm.0295r
p4253
I4254
sVm.02vkvdq
p4254
I4255
sVm.02vyz_b
p4255
I4256
sVm.0gkqz6x
p4256
I4257
sVm.026qc0k
p4257
I4258
sVm.034qrh
p4258
I4259
sVm.0x20kq9
p4259
I4260
sVm.019vhk
p4260
I4261
sVm.0c8lv
p4261
I4262
sVm.04pnx
p4262
I4263
sVm.070rc_
p4263
I4264
sVm.03c3fj1
p4264
I4265
sVm.02z1nbg
p4265
I4266
sVm.0crsfvd
p4266
I4267
sVm.093_pk
p4267
I4268
sVm.0pc741q
p4268
I4269
sVm.04wxr
p4269
I4270
sVm.0y7vm4n
p4270
I2012
sVm.02nw87f
p4271
I4272
sVm.03g_ckp
p4272
I4273
sVm.02vvwqg
p4273
I4274
sVm.0gkts9
p4274
I4275
sVm.0y8_yqj
p4275
I4276
sVm.0jkvk1_
p4276
I4277
sVm.080p785
p4277
I4278
sVm.0y5wt81
p4278
I4279
sVm.0y5mchf
p4279
I4280
sVm.0g7y_2
p4280
I4281
sVm.0y5mchv
p4281
I4282
sVm.0cc5m07
p4282
I4283
sVm.0vvhcvt
p4283
I4284
sVm.05b2jj
p4284
I4285
sVm.0835q
p4285
I4286
sVm.05zxlql
p4286
I4287
sVm.0273sq1
p4287
I4288
sVm.0yj7rmw
p4288
I4289
sVm.0vymmw1
p4289
I4290
sVm.02ptt_j
p4290
I4291
sVm.0h0zh_t
p4291
I4292
sVm.0ctlk
p4292
I4293
sVm.0gwc39z
p4293
I4294
sVm.0cj7jr
p4294
I4295
sVm.0gwc39c
p4295
I4296
sVm.03n_7k
p4296
I4297
sVm.04g8vjx
p4297
I4298
sVm.0kfwr2r
p4298
I4299
sVm.09s8n_
p4299
I4300
sVm.01gvpz
p4300
I4301
sVm.05h9vds
p4301
I4302
sVm.02828xm
p4302
I4303
sVm.03c5zgz
p4303
I4304
sVm.03zyv4
p4304
I4305
sVm.011pxbhm
p4305
I4306
sVm.0cz829_
p4306
I4307
sVm.0hcf6dr
p4307
I4308
sVm.0gks0t3
p4308
I4309
sVm.02kxjx
p4309
I4310
sVm.0tl4384
p4310
I4311
sVm.0v9n6p7
p4311
I4312
sVm.0d3k14
p4312
I4313
sVm.02r6fhw
p4313
I4314
sVm.0dgbf95
p4314
I4315
sVm.0h3s0cx
p4315
I4316
sVm.0dgbf9k
p4316
I4317
sVm.0bj7np
p4317
I4318
sVm.05ss3k_
p4318
I4319
sVm.0vmyf1b
p4319
I4320
sVm.0v9n4j6
p4320
I4321
sVm.011x3m5b
p4321
I4322
sVm.05xqpc
p4322
I4323
sVm.07vr21t
p4323
I4324
sVm.0wp6lw0
p4324
I4325
sVm.06r5t
p4325
I4326
sVm.0w1gc6z
p4326
I4327
sVm.0gkchht
p4327
I4328
sVm.0y855l0
p4328
I4329
sVm.03gyrqw
p4329
I4330
sVm.0svr5kl
p4330
I4331
sVm.0gzgj
p4331
I4332
sVm.03zs87
p4332
I4333
sVm.04br5t
p4333
I4334
sVm.05gv03
p4334
I4335
sVm.0h2vkqp
p4335
I4336
sVm.05zmv
p4336
I4337
sVm.0tl2ym0
p4337
I4338
sVm.0y53knp
p4338
I4339
sVm.0gydg4g
p4339
I4340
sVm.0y5hxyg
p4340
I4341
sVm.0y5clm3
p4341
I4342
sVm.03l4k3
p4342
I4343
sVm.0wy3j6h
p4343
I4344
sVm.0pc77gs
p4344
I4345
sVm.01xljtp
p4345
I4346
sVm.0y5hxyv
p4346
I4347
sVm.078jnn
p4347
I4348
sVm.064dv4
p4348
I4349
sVm.026jtk_
p4349
I4350
sVm.02r_km
p4350
I4351
sVm.0ycptx0
p4351
I4352
sVm.0w49yc8
p4352
I4353
sVm.026q0lb
p4353
I4354
sVm.01hqhm
p4354
I4355
sVm.0gykr80
p4355
I4356
sVm.010hct98
p4356
I4357
sVm.0283p_
p4357
I4358
sVm.0y7zsml
p4358
I4359
sVm.0sz28
p4359
I4360
sVm.0g4bd4
p4360
I4361
sVm.02kd1ry
p4361
I4362
sVm.02yygk
p4362
I4363
sVm.02_1sj
p4363
I4364
sVm.0yhrwxh
p4364
I4365
sVm.051zy_b
p4365
I4366
sVm.0v25h43
p4366
I4367
sVm.02k4b2
p4367
I4368
sVm.0yf0gbz
p4368
I4369
sVm.0zfn83x
p4369
I4370
sVm.01146s8b
p4370
I4371
sVm.02p54n
p4371
I4372
sVm.03h_208
p4372
I2647
sVm.0wpq2_0
p4373
I4374
sVm.0gj8r0x
p4374
I4375
sVm.0zn86gr
p4375
I4376
sVm.0l3kx
p4376
I4377
sVm.0dz8q
p4377
I4378
sVm.0dlk_qn
p4378
I4379
sVg.11b6mp5yt4
p4379
I4380
sVm.0z5bpb_
p4380
I4381
sVm.0y5kpc0
p4381
I4382
sVm.06yw98d
p4382
I4383
sVm.0b_kw74
p4383
I2708
sVm.0f48g0
p4384
I4385
sVm.0gxr8bv
p4385
I4386
sVm.03grp5m
p4386
I4387
sVm.063wpg6
p4387
I4388
sVm.0281q0c
p4388
I4389
sVm.0y58hnv
p4389
I4390
sVm.0cb2r
p4390
I4391
sVm.0crsy7t
p4391
I4392
sVm.072kp
p4392
I4393
sVm.05dvfrp
p4393
I4394
sVm.0dl7kpm
p4394
I4395
sVm.02z6wcn
p4395
I4396
sVm.0dsvd9
p4396
I4397
sVm.0gvcr
p4397
I4398
sVm.0crvm2r
p4398
I4399
sVm.025b7q2
p4399
I4400
sVm.01y2hbz
p4400
I4401
sVm.0289n2z
p4401
I4402
sVm.0vmy7n7
p4402
I4403
sVm.027_mzj
p4403
I4404
sVm.02xhkwb
p4404
I4405
sVm.0h2k7nx
p4405
I4406
sVm.0db6pk
p4406
I4407
sVm.09z743d
p4407
I4408
sVm.025vrh7
p4408
I4409
sVm.0dlk3zs
p4409
I4410
sVm.04j2p8f
p4410
I4411
sVm.02wcx8c
p4411
I4412
sVm.02r5tn1
p4412
I4413
sVm.0svr5vs
p4413
I4414
sVm.0170s4
p4414
I4415
sVm.07zkkck
p4415
I4416
sVm.04v048
p4416
I4417
sVm.0pc71fn
p4417
I4418
sVm.02t8yb
p4418
I4419
sVm.06xt2p
p4419
I4420
sVm.01_9fk
p4420
I4421
sVm.0fjp3
p4421
I4422
sVm.03pcqz
p4422
I4423
sVm.08yjvl
p4423
I4424
sVm.0jrsz
p4424
I4425
sVm.0yhrxjm
p4425
I4426
sVm.0c_pm7
p4426
I4427
sVm.03cbb25
p4427
I4428
sVm.0fvvc5
p4428
I4429
sVm.079ts4
p4429
I4430
sVm.0283mm
p4430
I4431
sVm.0tktrr8
p4431
I4432
sVm.0gxwwlg
p4432
I4433
sVm.0y5htp0
p4433
I4434
sVm.09vv07q
p4434
I4435
sVm.0y5htp6
p4435
I4436
sVm.0jy_wy
p4436
I4437
sVm.0y83vsh
p4437
I3018
sVm.0sx5w
p4438
I4439
sVm.05p1ms2
p4439
I4440
sVm.01ft2l
p4440
I4441
sVm.0gl_8br
p4441
I760
sVm.09d_r
p4442
I4443
sVm.0zn87lf
p4443
I4444
sVm.05mz7hj
p4444
I4445
sVm.0zn87ln
p4445
I4446
sVm.0wf0rsg
p4446
I4447
sVm.0ycqsl7
p4447
I4448
sVm.0vptrcs
p4448
I4449
sVm.0zbf6w0
p4449
I4450
sVm.0qrzyqw
p4450
I4451
sVm.0dhrxr
p4451
I4452
sVm.0v1klcb
p4452
I4453
sVm.0pd1zbq
p4453
I4454
sVm.0jxf5jv
p4454
I4455
sVm.05sr4_6
p4455
I4456
sVm.070fvc
p4456
I4457
sVm.0fqr23s
p4457
I4458
sVm.0ydx7g_
p4458
I4459
sVm.01zdj7f
p4459
I4460
sVm.01pk75
p4460
I4461
sVm.03s9kp
p4461
I4462
sVm.0cj5p0n
p4462
I4463
sVm.02w1v6t
p4463
I4465
sVm.0p8fxwn
p4464
I3169
sVm.0bvz_rw
p4465
I4467
sVm.08sdrw
p4466
I4468
sVm.03wcr3x
p4467
I4469
sVm.05sr4_d
p4468
I4470
sVm.02jrd
p4469
I4471
sVm.059ts
p4470
I4472
sVm.0yhsft5
p4471
I4473
sVm.0y7nqsk
p4472
I4474
sVm.05sr4_s
p4473
I4475
sVm.0y60w5x
p4474
I4476
sVm.04jf6_m
p4475
I4477
sVm.088tb
p4476
I4478
sVm.01xljr_
p4477
I3711
sVm.0789n
p4478
I4480
sVm.0vyn81b
p4479
I4481
sVm.092cdq
p4480
I4482
sVm.0f4_2k
p4481
I4483
sVm.0y5_d06
p4482
I5667
sVm.02hwyss
p4483
I4697
sVm.0cj5p05
p4484
I4486
sVm.0zfn9fy
p4485
I4487
sVm.0ngn1nn
p4486
I4488
sVm.04q8mtg
p4487
I4489
sVm.02ql50
p4488
I4490
sVm.0h1tjg2
p4489
I4491
sVm.02zr8
p4490
I4492
sVm.04yn_fs
p4491
I3269
sVm.09bpft
p4492
I5668
sVm.0qn1vjw
p4493
I4495
sVm.0bs3n8h
p4494
I4496
sVm.05mx3n
p4495
I5712
sVm.0270k40
p4496
I4497
sVm.0yj8btv
p4497
I4498
sVm.07kbw2j
p4498
I4499
sVm.05h39jx
p4499
I4500
sVm.0y7ng_0
p4500
I4501
sVm.0yk2y4d
p4501
I4502
sVm.0yq3zm2
p4502
I4503
sVm.0yct78k
p4503
I5672
sVm.0p18td2
p4504
I4505
sVm.01xr_wb
p4505
I3343
sVm.0hzspsr
p4506
I4507
sVm.02hr9mp
p4507
I4508
sVm.025_qnt
p4508
I4509
sVm.0dzlbx
p4509
I4510
sVm.01ppxz
p4510
I4511
sVm.0hnws
p4511
I4512
sVm.05m1x3_
p4512
I4513
sVm.0gy5q0b
p4513
I4514
sVm.02myrj
p4514
I4515
sVm.04_ys6
p4515
I4516
sVm.04f2brj
p4516
I4517
sVm.06jpdm
p4517
I4518
sVm.0cl9kw3
p4518
I3421
sVm.0w4bc0c
p4519
I4520
sVm.0dgb7kk
p4520
I3426
sVm.05m1x3f
p4521
I4522
sVm.0w49yx1
p4522
I4523
sVm.05m1x3m
p4523
I4524
sVm.042_ltb
p4524
I4525
sVm.0f9495
p4525
I4526
sVm.0cl9kwf
p4526
I4527
sVm.0d7xls6
p4527
I4528
sVm.0y8_33b
p4528
I4529
sVm.0cl9kwr
p4529
I4530
sVm.05m1x31
p4530
I4531
sVm.04dgcm
p4531
I4532
sVm.010pg1ds
p4532
I4533
sVm.0p17j
p4533
I4534
sVm.0tktn1q
p4534
I4535
sVm.0649mt
p4535
I4536
sVm.0z4qkn4
p4536
I4537
sVm.02pxhgv
p4537
I4538
sVm.0ds8pb
p4538
I4539
sVm.0y7n0c6
p4539
I4540
sVm.08xxwl
p4540
I4541
sVm.0yhsq90
p4541
I4542
sVm.0h0s8g
p4542
I4543
sVm.0pc6_d4
p4543
I4544
sVm.0gy8df_
p4544
I4545
sVm.02362
p4545
I4546
sVm.0p19p_0
p4546
I4547
sVm.02ntb8
p4547
I3718
sVm.0nfkx2_
p4548
I4549
sVm.0gfnxpp
p4549
I4550
sVm.0h97nsx
p4550
I4551
sVm.05qbckf
p4551
I4552
sVm.0dsbx11
p4552
I4553
sVm.03m6vdh
p4553
I4554
sVm.0fj6g2
p4554
I4555
sVm.06xlxlx
p4555
I4556
sVm.05kdryb
p4556
I4557
sVm.09lcsj
p4557
I4558
sVm.0bwhwf_
p4558
I4559
sVm.0g3fs
p4559
I4560
sVm.02_b0yk
p4560
I4561
sVm.0f9rs6
p4561
I4562
sVm.0y5c70k
p4562
I4563
sVm.06lspc
p4563
I4564
sVm.0b75rx1
p4564
I4565
sVm.0wry9ll
p4565
I4566
sVm.0y83rqn
p4566
I4567
sVm.0h5vr4q
p4567
I4568
sVm.033dgj
p4568
I4569
sVm.0gzh
p4569
I4570
sVm.034xyf
p4570
I4571
sVm.0y5hxwj
p4571
I4572
sVm.0g55yqj
p4572
I4573
sVm.0yf07dr
p4573
I4574
sVm.0g89m
p4574
I4575
sVm.0zfn816
p4575
I4576
sVm.07nh28
p4576
I4577
sVm.0yj6lpv
p4577
I4578
sVm.01v42g
p4578
I4579
sVm.0zcpz3h
p4579
I4580
sVm.04ctv62
p4580
I4581
sVm.0y5wqc7
p4581
I4582
sVm.0y5wt_1
p4582
I4583
sVm.0y7nq4q
p4583
I4584
sVm.0y606gj
p4584
I4585
sVm.0tkrtn_
p4585
I4586
sVm.09b6zr
p4586
I4587
sVm.0yd73hl
p4587
I4724
sVm.0jwnxrb
p4588
I4589
sVm.0k6t9b
p4589
I4590
sVm.0h5v9ts
p4590
I4591
sVm.0gyn8bv
p4591
I4592
sVm.07nng59
p4592
I4593
sVm.0vb385z
p4593
I4594
sVm.0h5v9tj
p4594
I4595
sVm.04627h0
p4595
I3955
sVm.0bpm4yw
p4596
I4597
sVm.0hp05
p4597
I4598
sVm.0y5mg7v
p4598
I4599
sVm.04lfq7v
p4599
I4600
sVm.0yhss4_
p4600
I4601
sVm.0gbx10g
p4601
I4602
sVm.0dlswcd
p4602
I4603
sVm.04n1xdl
p4603
I4604
sVm.0z4qtx_
p4604
I4605
sVm.0yhsv96
p4605
I4606
sVm.04627hh
p4606
I4607
sVm.03c2b7r
p4607
I4608
sVm.0bnns7
p4608
I4609
sVm.04627hw
p4609
I4610
sVm.0c03gdc
p4610
I4611
sVm.0yj5l88
p4611
I4612
sVm.0by7kz
p4612
I4613
sVm.0v0bjc8
p4613
I4614
sVm.0hp0z
p4614
I4615
sVm.0621v9
p4615
I4616
sVm.0ywyb9h
p4616
I4617
sVm.08dl83
p4617
I4618
sVm.06ctk
p4618
I4619
sVm.0fjrb
p4619
I4621
sVm.0270w9r
p4620
I4622
sVm.08yv3jg
p4621
I4623
sVm.0fqqygh
p4622
I4624
sVm.04tynw5
p4623
I4625
sVm.07cfyhb
p4624
I4626
sVm.0w4bb_c
p4625
I4627
sVm.027nr4g
p4626
I4628
sVm.06xt4w
p4627
I4629
sVm.060hk0
p4628
I4630
sVm.014zwb
p4629
I4631
sVm.02k6s1m
p4630
I4632
sVm.0zxrb00
p4631
I4633
sVm.04yj6th
p4632
I4634
sVm.04tynwk
p4633
I4635
sVm.01b7h8
p4634
I4636
sVm.0y83t80
p4635
I4637
sVm.0yvm5dh
p4636
I4638
sVm.04t2k9
p4637
I4639
sVm.0ydwnkn
p4638
I4640
sVm.04stv3z
p4639
I4641
sVm.03wb067
p4640
I4642
sVm.0947tg
p4641
I4643
sVm.0p8fxn6
p4642
I794
sVm.0ydz4yn
p4643
I4644
sVm.051x5f2
p4644
I4645
sVm.026nwxk
p4645
I4241
sVm.020bv3
p4646
I4647
sVm.04j2njj
p4647
I4648
sVm.0p8ffwq
p4648
I4649
sVm.0g5075j
p4649
I4650
sVm.06xt7m
p4650
I1775
sVm.0y85lzl
p4651
I4652
sVm.04jpg2p
p4652
I4653
sVm.02nwmhb
p4653
I4654
sVm.03h_yh
p4654
I4655
sVm.04gj1rj
p4655
I4656
sVm.0wyf71m
p4656
I4657
sVm.0h0vm8z
p4657
I4658
sVm.0zfnd9s
p4658
I4659
sVm.05hv9
p4659
I4660
sVm.04x3kb
p4660
I4661
sVm.0lphb
p4661
I4662
sVm.06vx3sc
p4662
I4663
sVm.0y7nqlr
p4663
I4664
sVm.05xqpq
p4664
I4665
sVm.02zqby
p4665
I4666
sVm.0zflrdj
p4666
I4667
sVm.0p0slms
p4667
I4668
sVm.07rhl9
p4668
I4669
sVm.07nv2wf
p4669
I4670
sVm.0q1yslr
p4670
I4671
sVm.062zjtt
p4671
I4672
sVm.0gkrxyt
p4672
I4673
sVm.08w51z
p4673
I4674
sVm.025zt8x
p4674
I4675
sVm.0dwly
p4675
I4676
sVm.04j35vs
p4676
I4677
sVm.047dsy7
p4677
I4678
sVm.0cj5p2d
p4678
I4679
sVm.0gtx64k
p4679
I4680
sVm.02y_rq5
p4680
I4681
sVm.0tkth2c
p4681
I4682
sVm.0jm74
p4682
I4683
sVm.05sqyff
p4683
I4684
sVm.05zrjym
p4684
I4685
sVm.05rd8
p4685
I4686
sVm.0cs1dh7
p4686
I4687
sVm.0d6lp
p4687
I4688
sVm.01wgr
p4688
I4689
sVm.0y7n2h6
p4689
I4690
sVm.027qgtb
p4690
I4691
sVm.0cj5p22
p4691
I4692
sVm.09kzfd
p4692
I4693
sVm.07kkt7
p4693
I4694
sVm.0p19b36
p4694
I4695
sVm.0fndbd
p4695
I4696
sVm.0dw4y1
p4696
I4485
sVm.0y7vk60
p4697
I4698
sVm.0v1krcy
p4698
I4699
sVm.0k7qcz
p4699
I4700
sVm.0z4nb1p
p4700
I4701
sVm.0pcb4lf
p4701
I4702
sVm.02vm7h8
p4702
I4703
sVm.0crnh6
p4703
I4704
sVm.05zzmsw
p4704
I4705
sVm.0vvhdh2
p4705
I4706
sVm.0ctw_b
p4706
I4707
sVm.0v1l1bn
p4707
I4708
sVm.0glzmsp
p4708
I4709
sVm.0glzmsx
p4709
I4710
sVm.0y90ync
p4710
I4711
sVm.0glzmsg
p4711
I4712
sVm.09x660
p4712
I4713
sVm.04_1l0v
p4713
I4714
sVm.0y1mh
p4714
I4715
sVm.0p8ft39
p4715
I4716
sVm.02kdb5
p4716
I4717
sVm.0cc7hmk
p4717
I4718
sVm.0y7np8g
p4718
I4719
sVm.06n6p
p4719
I4720
sVm.01l7gv
p4720
I4721
sVm.0539bq
p4721
I4722
sVm.0fy9wm
p4722
I4723
sVm.09x66c
p4723
I4588
sVm.0kfs8s9
p4724
I4725
sVm.08b3m
p4725
I4726
sVm.04dq5zq
p4726
I4727
sVm.02ql73
p4727
I4728
sVm.09vv08z
p4728
I810
sVm.04dq5zy
p4729
I4729
sVm.04bx29
p4730
I4730
sVm.0crvw
p4731
I4731
sVm.03zj8n
p4732
I4732
sVm.01lsnr4
p4733
I4733
sVm.0y7n987
p4734
I4734
sVm.0l8ptqj
p4735
I4735
sVm.0f27bx
p4736
I4736
sVm.02nwmh_
p4737
I4737
sVm.0y5c6zz
p4738
I4738
sVm.0y7n1m6
p4739
I4739
sVm.07wwkc1
p4740
I4740
sVg.11b6yz_c00
p4741
I4741
sVm.0nf3rxk
p4742
I4742
sVm.09rff3
p4743
I4743
sVm.04st6_k
p4744
I4744
sVm.02x173w
p4745
I4745
sVm.0y7nmm5
p4746
I4746
sVm.0c9s76x
p4747
I4747
sVm.0pbxmwf
p4748
I4748
sVm.0tlcbfx
p4749
I4749
sVm.036ytw
p4750
I4750
sVm.05qy6vz
p4751
I4751
sVm.0w49yzg
p4752
I4752
sVm.06j_k5
p4753
I4753
sVm.0y7vfj_
p4754
I4754
sVm.04gjljy
p4755
I4755
sVm.0tlt06c
p4756
I4756
sVm.0hn6bxg
p4757
I4757
sVm.0y8_rtt
p4758
I4758
sVm.0y83r9v
p4759
I4759
sVm.0164bt
p4760
I4760
sVm.0410nkx
p4761
I4761
sVm.02_286
p4762
I4762
sVm.0p8fg22
p4763
I4763
sVm.01kyvx
p4764
I4764
sVm.03cc0sw
p4765
I4765
sVm.09mgm1
p4766
I4766
sVm.0w4bjxr
p4767
I4767
sVm.0j8y21f
p4768
I4768
sVm.0gmg2mx
p4769
I4769
sVm.03c2hkf
p4770
I4770
sVm.04x6dm
p4771
I4771
sVm.02_3nyt
p4772
I4772
sVm.0gxv6w2
p4773
I4773
sVm.06wc9fm
p4774
I4774
sVm.02_3nym
p4775
I4775
sVm.087vnr5
p4776
I4776
sVm.03yz68
p4777
I4777
sVm.07j94
p4778
I4778
sVm.0g3dc
p4779
I4779
sVm.0y83rl0
p4780
I4780
sVm.0p19fwt
p4781
I4781
sVm.0y7ndjm
p4782
I4782
sVm.01_6pdj
p4783
I4783
sVm.0y5cfpj
p4784
I4784
sVm.0c6g0k
p4785
I4785
sVm.0w4bdfw
p4786
I4786
sVm.0w4bbx1
p4787
I4787
sVm.075nq5b
p4788
I4788
sVm.0pbxk1b
p4789
I4789
sVm.09cyx1c
p4790
I4790
sVm.0y5837d
p4791
I4791
sVm.01xljx3
p4792
I4792
sVm.02k54
p4793
I4793
sVm.0f6bx8
p4794
I4794
sVm.0271bv8
p4795
I4795
sVm.09cyx1t
p4796
I4796
sVm.04fnnx3
p4797
I4797
sVm.0p8fdt6
p4798
I4798
sVm.06dt8s
p4799
I4799
sVm.0nhjzjy
p4800
I4800
sVm.038qjj
p4801
I4801
sVm.07k8wtt
p4802
I4802
sVm.04y2j6
p4803
I4803
sVm.0vx5b_s
p4804
I4804
sVm.04gmwdj
p4805
I5705
sVm.0by46cc
p4806
I4805
sVm.0swmmpv
p4807
I4806
sVm.0287hb
p4808
I4807
sVm.09cyx10
p4809
I4808
sVm.0gzk5w2
p4810
I4809
sVm.08nhkw
p4811
I4810
sVm.07fj_
p4812
I4811
sVm.0csf__
p4813
I4812
sVm.03c11fw
p4814
I4813
sVm.0c0932j
p4815
I4814
sVm.0svsdl8
p4816
I5094
sVm.0w49yg7
p4817
I4816
sVm.04fnpm0
p4818
I4817
sVm.0swmrqw
p4819
I4818
sVm.0yd7fy8
p4820
I4819
sVm.0y84ylz
p4821
I4820
sVm.02z0n0y
p4822
I4821
sVm.01xrzkl
p4823
I4822
sVm.0gc2b9p
p4824
I4823
sVm.0yj6s6n
p4825
I2720
sVm.02nrqt3
p4826
I4825
sVm.0w49ygy
p4827
I4826
sVm.07t58
p4828
I4827
sVm.02wh5_f
p4829
I4828
sVm.02q87z6
p4830
I4829
sVm.0fkvn
p4831
I4830
sVm.043zb8w
p4832
I4831
sVm.0280rk8
p4833
I4832
sVm.043zb8h
p4834
I4833
sVm.0ycsg29
p4835
I4834
sVm.04627j7
p4836
I4835
sVm.02pnv27
p4837
I4836
sVm.0zfnqyy
p4838
I4837
sVm.0hp23
p4839
I4838
sVm.07ylsq0
p4840
I4839
sVm.0g4bh7
p4841
I4840
sVm.0yhsvlp
p4842
I4841
sVm.09gl8mx
p4843
I4842
sVm.080g512
p4844
I4843
sVm.056g0th
p4845
I4844
sVm.0nb2r_p
p4846
I4845
sVm.0bpnqc
p4847
I4846
sVm.0ppgzhv
p4848
I4847
sVm.0c31r0
p4849
I4848
sVm.0y7vq9v
p4850
I4849
sVm.0j15v2d
p4851
I4850
sVm.0p18km4
p4852
I4851
sVm.023vcd
p4853
I4852
sVm.045r87r
p4854
I4853
sVm.0g4bhy
p4855
I4854
sVm.04ljylq
p4856
I4855
sVm.05q63qg
p4857
I4856
sVm.02r7z7j
p4858
I4857
sVm.0c2wy
p4859
I4858
sVm.03nq86d
p4860
I4859
sVm.016ky6
p4861
I4860
sVm.0f13bgk
p4862
I4861
sVm.0cv7_0r
p4863
I4862
sVm.0n29_gf
p4864
I4863
sVm.010pvhgk
p4865
I4864
sVm.02qdy1
p4866
I4865
sVm.04hwbq
p4867
I4866
sVm.04njprm
p4868
I4867
sVm.0285m54
p4869
I5356
sVm.0svr602
p4870
I4869
sVm.02k6s3h
p4871
I4870
sVm.0vmxhq0
p4872
I4871
sVm.0y85mv0
p4873
I4872
sVm.0sghvky
p4874
I4873
sVm.027b7y9
p4875
I4874
sVm.0dxgl
p4876
I3296
sVm.0h5n18v
p4877
I4876
sVm.05p1tzf
p4878
I4877
sVm.0vpm14v
p4879
I4878
sVm.03d9kg
p4880
I5430
sVm.0fcy8s
p4881
I4880
sVm.0t52gx8
p4882
I4881
sVm.0ph24
p4883
I4882
sVm.0ght1c0
p4884
I4883
sVm.04n33f0
p4885
I4884
sVm.03mh1mw
p4886
I4885
sVm.07ch_fp
p4887
I4886
sVm.0nfqbn4
p4888
I4887
sVm.0djz0rc
p4889
I4888
sVm.0d75hvl
p4890
I4889
sVm.04j10sq
p4891
I4890
sVm.0g56t9t
p4892
I4891
sVm.0y4h3j4
p4893
I4892
sVm.0y5ht76
p4894
I844
sVm.0gb1xh
p4895
I4894
sVm.04054ky
p4896
I4895
sVm.0rytjdt
p4897
I4896
sVm.01_82p
p4898
I4897
sVm.08ll52
p4899
I4898
sVm.02dtg
p4900
I4899
sVm.0by43zw
p4901
I4900
sVm.0jn4zpl
p4902
I4901
sVm.0gs973
p4903
I4902
sVm.0by43zm
p4904
I4903
sVm.0h1pg6g
p4905
I4904
sVm.0by43zc
p4906
I4905
sVg.11b6pnz7bg
p4907
I4906
sVm.0dm5f8
p4908
I4907
sVm.0y5wh88
p4909
I4908
sVm.026099
p4910
I4909
sVm.02h7d95
p4911
I4910
sVm.0glzmql
p4912
I4911
sVm.0glzmqc
p4913
I4912
sVm.0n_hp
p4914
I4913
sVm.02p746t
p4915
I4914
sVm.02rqkh2
p4916
I4915
sVm.03mgx6z
p4917
I4916
sVm.0glzmqt
p4918
I4917
sVm.0vx6y4f
p4919
I4918
sVm.0467wt
p4920
I4919
sVm.0ct24n
p4921
I4920
sVm.0bpbhm
p4922
I4921
sVm.091hv6
p4923
I4922
sVm.0vb3dz6
p4924
I849
sVm.0dyymp
p4925
I4924
sVm.0hgmj25
p4926
I4925
sVm.03bx6zg
p4927
I4926
sVm.0fx5wx
p4928
I4927
sVm.01sbv9
p4929
I4928
sVm.07sbq6c
p4930
I4929
sVm.0y7nbgv
p4931
I4930
sVm.0glzmq4
p4932
I4931
sVm.0yht110
p4933
I4932
sVm.09tlzf1
p4934
I4933
sVm.0yhshyz
p4935
I4934
sVm.027k49j
p4936
I4935
sVm.0jwd8s3
p4937
I4936
sVm.0h5nhpx
p4938
I4937
sVm.0fls50
p4939
I4938
sVm.0y8544t
p4940
I4939
sVm.0h5nhph
p4941
I4940
sVm.03mvtj
p4942
I4941
sVm.02qk_8
p4943
I4942
sVm.0hd7vbd
p4944
I4943
sVm.09v9dsq
p4945
I4944
sVm.034qbx
p4946
I4945
sVm.01vvfsc
p4947
I4946
sVm.04q0k2l
p4948
I4947
sVm.02nyv2b
p4949
I4948
sVm.0y8_l3b
p4950
I4949
sVm.02hqv_f
p4951
I4950
sVm.0y5c6x8
p4952
I4951
sVm.0w17j4s
p4953
I26
sVm.04lw
p4954
I4953
sVm.0h5nhp7
p4955
I4954
sVm.0y5fx3t
p4956
I4955
sVm.0v8zf8v
p4957
I4956
sVm.03hkp
p4958
I4957
sVm.0hj4x84
p4959
I4958
sVm.0y7zsz7
p4960
I4959
sVm.02nwmj6
p4961
I4960
sVm.0y7zm10
p4962
I71
sVm.011q9yq4
p4963
I4962
sVm.067v77
p4964
I4963
sVm.0tktxdz
p4965
I4964
sVm.0cpbqy6
p4966
I4965
sVm.0j3dlzr
p4967
I2108
sVm.0y83w27
p4968
I4966
sVm.05df7k
p4969
I4967
sVm.0cj5p_r
p4970
I4968
sVm.0gqxm
p4971
I4969
sVm.0nhfrh6
p4972
I4970
sVm.06c0j
p4973
I4971
sVm.0b72h5
p4974
I4972
sVm.09w6br
p4975
I4973
sVm.0yj8f9l
p4976
I4974
sVm.0y7zrx8
p4977
I4975
sVm.020fcn
p4978
I4976
sVm.01tf_6
p4979
I4977
sVg.120wrm8m
p4980
I4978
sVm.0nfkx6n
p4981
I4979
sVm.05l4yg
p4982
I4980
sVm.04t4bm
p4983
I4981
sVm.026pgdc
p4984
I4982
sVm.02t85zv
p4985
I4983
sVm.0dxfr7_
p4986
I4985
sVm.09r8m0x
p4987
I4986
sVm.0y855f6
p4988
I4987
sVm.0p19dw4
p4989
I4988
sVm.034ls
p4990
I4989
sVm.09r8m0q
p4991
I4990
sVm.0gxs87f
p4992
I4991
sVm.0p19cr_
p4993
I865
sVm.01zn03_
p4994
I4993
sVm.01gvv5
p4995
I4994
sVm.02pnb78
p4996
I4995
sVm.04g51
p4997
I4996
sVm.0mztk28
p4998
I4997
sVeducation.university
p4999
I4998
sVm.0yhs_9z
p5000
I4999
sVg.1q2xhgvj0
p5001
I5000
sVm.0v304p7
p5002
I5001
sVm.079g3z
p5003
I5002
sVm.0ydwbtw
p5004
I5003
sVm.01y1m9s
p5005
I5004
sVm.012z2sxf
p5006
I5005
sVm.0y5hxsb
p5007
I5006
sVm.02hr7t2
p5008
I5007
sVm.02p1fhg
p5009
I5008
sVm.0fq0tk0
p5010
I5009
sVm.029jpy
p5011
I388
sVm.0p8gx4t
p5012
I5011
sVm.0y7nlhb
p5013
I5012
sVm.0y7nfvy
p5014
I5013
sVm.07tf8
p5015
I5014
sVm.02nrqvn
p5016
I5015
sVm.07y2s
p5017
I5016
sVm.07g0kb
p5018
I5017
sVm.0349s
p5019
I5018
sVm.0d8f02
p5020
I5019
sVm.0jb19
p5021
I5020
sVm.02rtfk1
p5022
I5021
sVm.0vb36gw
p5023
I5022
sVm.0w49z5n
p5024
I5749
sVm.0h1cpj2
p5025
I5024
sVm.0w4bg_d
p5026
I878
sVm.0d8g5
p5027
I5025
sVm.026z4dd
p5028
I5026
sVm.0yj7vfy
p5029
I5027
sVm.0vb381w
p5030
I5028
sVm.047cjk2
p5031
I5029
sVm.0by469p
p5032
I5030
sVm.011yd2
p5033
I5031
sVm.011d_cyk
p5034
I5032
sVm.05f62g_
p5035
I5033
sVg.15dqm31_
p5036
I5034
sVm.0gyxk0m
p5037
I5035
sVm.02_4gmh
p5038
I5036
sVm.0bnrk0
p5039
I5037
sVm.0y7n9ql
p5040
I5038
sVm.0rzrlr6
p5041
I5039
sVm.0p58j
p5042
I5040
sVm.042g97
p5043
I5041
sVm.03c3zfk
p5044
I5042
sVm.0h2xxkv
p5045
I5043
sVm.0by4693
p5046
I5044
sVm.0c0930n
p5047
I5045
sVm.05yxmk
p5048
I5046
sVm.0f9cdn
p5049
I2790
sVm.01dc8g
p5050
I5048
sVm.06hv94
p5051
I5049
sVm.087_1s
p5052
I884
sVm.0h5dyd5
p5053
I5051
sVm.0gxr3cy
p5054
I5052
sVm.0fj45
p5055
I5110
sVm.0jmk7
p5056
I5053
sVm.0y5c2q8
p5057
I5054
sVm.0bmk4bh
p5058
I5055
sVm.025v8pb
p5059
I5056
sVm.0h4yjz1
p5060
I5057
sVm.0y85mth
p5061
I5058
sVm.0h2d0m6
p5062
I5059
sVm.0hns5kc
p5063
I5060
sVm.0v1kmbd
p5064
I5061
sVm.0h2kh6z
p5065
I5062
sVm.0y7vm_6
p5066
I5063
sVm.0tl34p7
p5067
I5064
sVm.03ys2f
p5068
I5065
sVm.0hns5kv
p5069
I5066
sVm.0p18xqt
p5070
I5067
sVm.0yht04d
p5071
I5068
sVm.02rmt0l
p5072
I5756
sVg.11b6nx6fxj
p5073
I5069
sVm.0wp6wtw
p5074
I5070
sVg.1237vxbv
p5075
I5071
sVm.0yhsgq6
p5076
I5072
sVm.0g5b4vd
p5077
I5073
sVm.021yw7
p5078
I5074
sVm.04f46l
p5079
I5075
sVm.0y5htj2
p5080
I5076
sVm.04ykgvs
p5081
I829
sVm.025vkq5
p5082
I5078
sVm.064b3qk
p5083
I5079
sVm.03gzs4y
p5084
I5080
sVm.04ykgvd
p5085
I5081
sVm.03_xwn
p5086
I5082
sVm.02_3px4
p5087
I5083
sVm.0yhzf51
p5088
I5084
sVm.0gy9xk9
p5089
I5085
sVm.03cdp4n
p5090
I5086
sVm.05yr7st
p5091
I5087
sVm.073965
p5092
I5088
sVm.0dnkmq
p5093
I5089
sVm.0f6c3
p5094
I5090
sVm.0j1_qrk
p5095
I5091
sVm.0n46q01
p5096
I5092
sVm.094qd5
p5097
I890
sVm.0svr4y4
p5098
I4815
sVm.02_3pxb
p5099
I5095
sVm.0zfnm40
p5100
I5096
sVm.0y5htjt
p5101
I5097
sVm.05p0r3
p5102
I5098
sVm.0y5htjm
p5103
I5099
sVm.0y5htjb
p5104
I5100
sVm.02qw1zx
p5105
I5101
sVm.01x02p
p5106
I5102
sVm.02q02ql
p5107
I5103
sVm.0y5_dgy
p5108
I5104
sVg.1ym_l5qwv
p5109
I943
sVm.07wwkxd
p5110
I5106
sVm.05k834
p5111
I5107
sVm.02hvnf4
p5112
I5108
sVm.0gy9xkk
p5113
I5109
sVm.0y7my_r
p5114
I959
sVm.02nwmq1
p5115
I5111
sVm.06dkd5
p5116
I5112
sVm.0cj5p50
p5117
I5113
sVm.0hzzzz3
p5118
I1408
sVm.06mkj
p5119
I5115
sVm.0cw2l2
p5120
I995
sVm.0v1kn4k
p5121
I5117
sVm.0y8_bll
p5122
I5118
sVm.0ch48sq
p5123
I5119
sVm.0g9_64m
p5124
I1029
sVm.01vj9c
p5125
I5121
sVm.02lw8w
p5126
I5122
sVm.023g6w
p5127
I5123
sVm.02qf8sx
p5128
I5124
sVm.0ddtn4
p5129
I5125
sVm.02qd_td
p5130
I5126
sVm.05h9vkp
p5131
I5127
sVm.02hwd1n
p5132
I5128
sVm.0y4n1sq
p5133
I5129
sVm.027xbpw
p5134
I5130
sVm.0p8ft7h
p5135
I5131
sVm.0ddf892
p5136
I5132
sVm.04xg256
p5137
I5133
sVm.0svr7b1
p5138
I5134
sVm.01y2k07
p5139
I5135
sVm.0y5mcpn
p5140
I5136
sVm.011201wq
p5141
I5137
sVm.0ydznh8
p5142
I5138
sVm.028xq_
p5143
I5139
sVm.010g2jmb
p5144
I5140
sVm.0z3vtmp
p5145
I5141
sVm.06_xd0t
p5146
I5142
sVm.097df
p5147
I1205
sVm.09f6ky
p5148
I5144
sVm.01tnxc
p5149
I5145
sVm.0h5nhrr
p5150
I5146
sVm.0f28_j
p5151
I5147
sVm.01l63z
p5152
I5148
sVm.0gz5hs
p5153
I5149
sVm.02nyv0s
p5154
I5150
sVm.0h5nhrj
p5155
I5151
sVm.0dh_5t
p5156
I1256
sVm.0y5ck6s
p5157
I5153
sVm.05mph
p5158
I5154
sVm.027v2lz
p5159
I5155
sVm.075nnwm
p5160
I5156
sVm.02nwmls
p5161
I5157
sVm.0pbxmsp
p5162
I5158
sVm.04j1j7m
p5163
I5159
sVm.0h5nhr9
p5164
I5160
sVm.0y7nk_y
p5165
I5161
sVm.0ch3qr1
p5166
I5162
sVm.059rby
p5167
I5163
sVm.0tlp2y_
p5168
I5164
sVm.0z5b7st
p5169
I5165
sVm.05pdfp6
p5170
I5166
sVm.02pnrmj
p5171
I5167
sVm.07gm50
p5172
I5168
sVm.0y7zqrv
p5173
I5169
sVm.03lr4n
p5174
I5170
sVm.016dj8
p5175
I5171
sVm.04j9nml
p5176
I5172
sVm.03r2fs
p5177
I5173
sVm.025scpw
p5178
I5174
sVm.07jr7p
p5179
I5175
sVm.0y5mc8x
p5180
I5176
sVm.0y5mfx_
p5181
I5177
sVm.03byhf4
p5182
I2817
sVm.047cvb7
p5183
I5179
sVm.08nnsty
p5184
I5180
sVm.0w4bjtt
p5185
I5181
sVm.0y7zx2s
p5186
I5182
sVm.0pc72kb
p5187
I5183
sVm.026ny
p5188
I5184
sVm.0c7lfhc
p5189
I5185
sVm.0466s8n
p5190
I5186
sVm.0y5mc89
p5191
I5187
sVm.0y8zd46
p5192
I5188
sVm.0h94kkg
p5193
I5189
sVm.0vsj9hv
p5194
I5190
sVm.0vb36p8
p5195
I3818
sVm.0h7y2f
p5196
I5192
sVm.012gk9
p5197
I5193
sVm.0_y87vj
p5198
I5194
sVm.0crshly
p5199
I5195
sVm.0y5mfx2
p5200
I5196
sVm.04gjyyn
p5201
I5197
sVm.01nt
p5202
I5198
sVm.01nm
p5203
I5199
sVm.0v1kzrp
p5204
I5200
sVm.01qn7n
p5205
I5201
sVm.01nf
p5206
I5202
sVm.048knk3
p5207
I5203
sVm.02qyntr
p5208
I5204
sVm.04lgr4y
p5209
I5205
sVm.047tf5l
p5210
I5206
sVm.0p8gzs6
p5211
I5207
sVm.0vmyg8j
p5212
I5208
sVm.0svr5c5
p5213
I5209
sVm.0pbxn08
p5214
I5210
sVm.01n7
p5215
I5211
sVm.02hwhm8
p5216
I5212
sVm.0tkrsnh
p5217
I5213
sVm.0y7njt6
p5218
I5214
sVm.0_vc5hr
p5219
I5215
sVm.047gc1g
p5220
I5216
sVm.0ydzxfh
p5221
I5217
sVm.0ycrtdb
p5222
I5218
sVm.0hzjmlj
p5223
I5219
sVm.02nrqp5
p5224
I5220
sVm.05kdn2m
p5225
I5221
sVm.0281wjw
p5226
I5222
sVm.0tkv3hb
p5227
I5223
sVm.07f_7h
p5228
I5224
sVm.0wp6x86
p5229
I5225
sVm.0zw3029
p5230
I5226
sVm.08kg1w
p5231
I5227
sVm.02hxsl0
p5232
I5228
sVm.0y910my
p5233
I5229
sVm.0nhfv2t
p5234
I5230
sVm.02qcr
p5235
I5231
sVm.01_0f7
p5236
I5232
sVm.05bh614
p5237
I5233
sVm.02knql
p5238
I5234
sVm.0yd6ngt
p5239
I5235
sVm.01gkp1
p5240
I5236
sVm.0g4g1f5
p5241
I5237
sVm.0cz8t9q
p5242
I5238
sVm.02pcq92
p5243
I5239
sVm.0gxqx95
p5244
I5240
sVm.0c4s56
p5245
I5241
sVm.0y85tsp
p5246
I5242
sVm.034dd0
p5247
I5243
sVm.0g4g1ff
p5248
I5244
sVm.0h2m1z5
p5249
I5245
sVm.0tm509g
p5250
I5246
sVm.0gw7szs
p5251
I5247
sVm.0g4g1fp
p5252
I5248
sVm.012jdw
p5253
I5249
sVm.07jsyh
p5254
I5250
sVm.0c09mvc
p5255
I5251
sVm.047px22
p5256
I5252
sVm.0g4g1f_
p5257
I5253
sVm.0tl3fpv
p5258
I5254
sVm.0vvh60k
p5259
I5255
sVm.01vp3n
p5260
I5256
sVm.0vx6kc8
p5261
I5257
sVm.0yhqhcr
p5262
I5258
sVm.0y53n0z
p5263
I5259
sVm.0gzgdjx
p5264
I5260
sVm.0crrtl8
p5265
I3833
sVm.0n1k7pw
p5266
I5262
sVm.05jf85
p5267
I5263
sVm.06f_q7
p5268
I5264
sVm.0vp1_3j
p5269
I5265
sVm.0kpym_
p5270
I5266
sVm.058z_m
p5271
I5267
sVm.0sgq5bl
p5272
I5268
sVm.064nkkl
p5273
I5269
sVm.0123kmw8
p5274
I5270
sVm.0287f9k
p5275
I5271
sVm.02vs0cp
p5276
I5272
sVm.0czdw9p
p5277
I5273
sVm.0dmnww
p5278
I5274
sVm.0kpymm
p5279
I5275
sVm.0dt04x
p5280
I5276
sVm.0139v3ty
p5281
I5277
sVm.03hqvns
p5282
I5278
sVm.0tlrgp2
p5283
I5279
sVm.0bcz3j
p5284
I5280
sVm.0dflw_2
p5285
I5281
sVm.0ngvsvk
p5286
I5282
sVm.09gq7c0
p5287
I5283
sVm.0gw5368
p5288
I5793
sVm.0k7r2
p5289
I5285
sVm.0y58kt3
p5290
I916
sVm.0y5htc5
p5291
I2840
sVm.07c72
p5292
I5288
sVm.0d2_rt8
p5293
I5289
sVm.06tw8
p5294
I5290
sVm.0gbfn9
p5295
I5291
sVm.02r5fwy
p5296
I5292
sVm.0_r93ky
p5297
I5293
sVm.0123r4
p5298
I2841
sVm.0y8zhps
p5299
I5295
sVm.0v9r143
p5300
I5296
sVm.0hz55
p5301
I5297
sVm.011jhcqv
p5302
I5298
sVm.0y850yf
p5303
I5299
sVm.03bx5x5
p5304
I5300
sVm.04fzr12
p5305
I5301
sVm.05gp365
p5306
I5303
sVm.05rw58
p5307
I5304
sVm.0y8zwz3
p5308
I918
sVm.0cz9t2p
p5309
I5306
sVm.06x0tp
p5310
I2216
sVm.0gjd79j
p5311
I5308
sVm.0v1kvm_
p5312
I5309
sVm.0gcx_nj
p5313
I5310
sVm.0y7nm3f
p5314
I5311
sVm.06w3qzj
p5315
I5312
sVm.05nm2z8
p5316
I5313
sVm.0y7n0xs
p5317
I5314
sVm.050f0s
p5318
I5315
sVm.0mv2ndg
p5319
I5316
sVm.07g47h
p5320
I5801
sVm.0pc70xc
p5321
I5318
sVm.0q9v2
p5322
I5319
sVm.047dtqb
p5323
I5320
sVm.0n4jc2_
p5324
I5321
sVm.0v1kz4t
p5325
I5322
sVm.03bxp5
p5326
I5323
sVm.09gj4dp
p5327
I5324
sVm.0gztl
p5328
I5325
sVm.0gy8n81
p5329
I5326
sVm.0y7zw94
p5330
I5327
sVm.0y7vn5h
p5331
I5328
sVm.03q_5
p5332
I5329
sVm.0ds58fy
p5333
I5330
sVm.0c4hvfy
p5334
I5331
sVm.04fgxjj
p5335
I5332
sVm.0263wsj
p5336
I5333
sVm.0k22zlc
p5337
I5334
sVm.0c1j6mv
p5338
I5335
sVm.0c3zxsg
p5339
I5336
sVm.0y83rwl
p5340
I5337
sVm.0c1j6mg
p5341
I5338
sVm.0l3qr73
p5342
I5339
sVm.07s7cs5
p5343
I5340
sVm.0b_kw4f
p5344
I5341
sVm.0zmtd2f
p5345
I5342
sVm.07jc3n
p5346
I5343
sVm.04sg0b
p5347
I5344
sVm.0y5c6t0
p5348
I5345
sVm.031786
p5349
I5346
sVm.0tk6zb9
p5350
I5347
sVm.0114j3j2
p5351
I5348
sVm.0wbgl7k
p5352
I5349
sVm.02pw_n
p5353
I5350
sVm.0dkmxh
p5354
I5351
sVm.0yj71gr
p5355
I5352
sVm.0fbppx
p5356
I5353
sVm.0v1kkw6
p5357
I5354
sVm.088j6t
p5358
I5355
sVm.06n95j
p5359
I4868
sVm.0y5c5hp
p5360
I5357
sVm.0dlsyb_
p5361
I5358
sVm.0gmlghq
p5362
I5359
sVm.01vsykc
p5363
I5360
sVm.02r193v
p5364
I5361
sVm.0tm61pk
p5365
I5362
sVm.0c7lfjk
p5366
I5363
sVm.0y85px8
p5367
I5364
sVm.05n6sq
p5368
I5365
sVm.0rqcdxx
p5369
I5366
sVm.0h_m
p5370
I5367
sVm.02qt02v
p5371
I5368
sVm.0vvhf08
p5372
I5369
sVm.0dlsybb
p5373
I5370
sVm.0y5mfz0
p5374
I5371
sVm.0y7zlgh
p5375
I5372
sVm.0nhfvh2
p5376
I5373
sVm.0ltrzxh
p5377
I2859
sVm.02pnbnb
p5378
I5375
sVm.0y855bl
p5379
I5376
sVm.0bbzn7
p5380
I5377
sVm.062q2y
p5381
I2860
sVm.0j_84g2
p5382
I5379
sVm.02r72r
p5383
I5380
sVm.0g_1sj
p5384
I5381
sVm.0y84xnp
p5385
I5382
sVm.0bv8fl8
p5386
I5383
sVm.09rp79
p5387
I5384
sVm.0y7vv7h
p5388
I5385
sVm.0fd3jv
p5389
I2862
sVm.0h283r_
p5390
I5387
sVm.065tqqx
p5391
I5388
sVm.0w33l77
p5392
I5389
sVm.03_5p_
p5393
I5390
sVm.07jdr
p5394
I5391
sVm.0gz56kd
p5395
I5392
sVm.0zbxpnf
p5396
I5393
sVm.076tw54
p5397
I5394
sVm.0v1kp7f
p5398
I5395
sVm.0bv8flt
p5399
I5396
sVm.0pc6_4t
p5400
I5397
sVm.052nd_v
p5401
I5398
sVm.08scbsj
p5402
I5399
sVm.0604zn
p5403
I5400
sVm.0cskb
p5404
I5401
sVm.01j_cy
p5405
I5402
sVm.0ydyqhm
p5406
I5403
sVm.05swykm
p5407
I5404
sVm.01kg7x
p5408
I5405
sVm.0y84ybf
p5409
I5821
sVm.04j0_gm
p5410
I5407
sVm.0gbl_jq
p5411
I5408
sVm.0j_kmp7
p5412
I5409
sVm.0j_kmp0
p5413
I5410
sVm.03wglgs
p5414
I5411
sVm.02z4ttl
p5415
I5412
sVm.0h2y9q7
p5416
I5413
sVm.0c2m4
p5417
I5414
sVm.0zn83jz
p5418
I5415
sVm.0zn83jm
p5419
I5416
sVm.0ccs8s
p5420
I5417
sVm.01gcf0
p5421
I5418
sVm.035v1k
p5422
I5419
sVm.04lqy3t
p5423
I5420
sVm.07_xhj
p5424
I5823
sVm.0j_kmpg
p5425
I5422
sVm.0cc3fsw
p5426
I5423
sVm.0g4g1dp
p5427
I2704
sVm.0nfnhrv
p5428
I5425
sVm.0g4g1dy
p5429
I5426
sVm.043rjdx
p5430
I3126
sVm.02dzsr
p5431
I5428
sVm.0zfn982
p5432
I5429
sVm.06zkv50
p5433
I5431
sVm.09nm_
p5434
I5432
sVm.0ksfl
p5435
I5433
sVm.0yj68zm
p5436
I5434
sVm.0pcl585
p5437
I951
sVm.02h850x
p5438
I5436
sVm.0dsd7gy
p5439
I5437
sVm.0fd45d
p5440
I5438
sVm.0yhsnkr
p5441
I5439
sVm.027vrq3
p5442
I5440
sVm.0852h
p5443
I5441
sVm.04gh3gj
p5444
I5442
sVm.01dc46
p5445
I5443
sVm.0svr8nb
p5446
I5444
sVm.01pvs1
p5447
I5445
sVm.02swp
p5448
I5446
sVm.0bg9xm6
p5449
I5447
sVm.0yhrrzp
p5450
I5448
sVm.0bq8tmw
p5451
I5449
sVm.0285v4p
p5452
I5450
sVm.0f19ys
p5453
I4620
sVm.0n4d532
p5454
I5452
sVm.0nhfv0g
p5455
I5453
sVm.02yx1n
p5456
I5454
sVm.03csm04
p5457
I5456
sVm.04krh0k
p5458
I5457
sVm.0zfnk60
p5459
I5458
sVm.0gjb9pj
p5460
I2883
sVm.0y5htn9
p5461
I5460
sVm.0d7svf
p5462
I5461
sVm.04j2qbw
p5463
I5462
sVm.01_4h2
p5464
I5463
sVm.09l0x9
p5465
I5464
sVm.07cbs
p5466
I5465
sVm.0gwsryh
p5467
I5466
sVm.0y5htnv
p5468
I5467
sVm.0vvh3_5
p5469
I5468
sVm.0y83s7l
p5470
I5469
sVm.02h5yxm
p5471
I5470
sVm.0y5htnk
p5472
I5471
sVm.026ccts
p5473
I5473
sVm.066bmf
p5474
I5474
sVm.05pdh86
p5475
I5475
sVm.0k4n3
p5476
I5476
sVm.0c3_662
p5477
I5477
sVm.0zw2xcb
p5478
I5478
sVm.06xv1n1
p5479
I5479
sVm.0jvph5
p5480
I5480
sVm.01gvwr
p5481
I5481
sVm.05mgcp
p5482
I5482
sVm.06jl81
p5483
I5483
sVm.0y7zp0y
p5484
I3493
sVm.0gxqj3
p5485
I5485
sVm.0vxk4zh
p5486
I5486
sVm.0h13qy
p5487
I5487
sVm.0pc70v7
p5488
I5488
sVm.0blmy
p5489
I5489
sVm.089k60
p5490
I5490
sVm.0svr4kd
p5491
I5491
sVm.0y7vqg2
p5492
I5492
sVm.0y5hxtm
p5493
I5493
sVm.0b6mg3l
p5494
I5494
sVm.01b66d
p5495
I5495
sVm.04ztj
p5496
I5496
sVm.02rmc6s
p5497
I5836
sVm.0d8j73
p5498
I5498
sVm.047fygz
p5499
I5499
sVm.02j9z
p5500
I5500
sVm.02lxrv
p5501
I5501
sVm.0p8fzk6
p5502
I5502
sVm.03d663h
p5503
I5503
sVm.02ywjs
p5504
I5504
sVm.02pyrmm
p5505
I5505
sVm.06xqr4
p5506
I5506
sVm.0h5qk0_
p5507
I5507
sVm.08hmch
p5508
I3619
sVm.0tkt9n_
p5509
I5509
sVm.0b39c3
p5510
I5510
sVm.02xm94t
p5511
I5511
sVm.05d16wm
p5512
I5512
sVm.05qbbfb
p5513
I5513
sVm.0yhshcs
p5514
I5514
sVm.0y85m8c
p5515
I3657
sVm.01rs41
p5516
I5516
sVm.0yj7tc8
p5517
I3660
sVm.03m4mj
p5518
I5518
sVm.0y4pzk2
p5519
I5519
sVm.07s3kvh
p5520
I5520
sVm.0cc4gj8
p5521
I5521
sVm.07cf_ls
p5522
I5522
sVm.0295sy
p5523
I5523
sVm.0l0f12g
p5524
I5524
sVm.0_xbj8q
p5525
I5525
sVm.047b4f8
p5526
I5526
sVm.0hr6nyb
p5527
I5527
sVm.0yf048d
p5528
I5528
sVm.0b_kw6k
p5529
I5529
sVm.0q206ln
p5530
I5530
sVm.0r8phd0
p5531
I5531
sVm.0v1ky9n
p5532
I5532
sVg.1xy2rchc
p5533
I5533
sVm.0y5mh1c
p5534
I5534
sVm.0y5cmb_
p5535
I5535
sVm.0gydfnp
p5536
I3743
sVm.0bvgm5z
p5537
I5537
sVm.02_w_sv
p5538
I5538
sVm.0w49z3b
p5539
I5539
sVm.01dy7j
p5540
I5540
sVm.0b_kw64
p5541
I5541
sVm.01wkdgr
p5542
I5542
sVm.04lgvd9
p5543
I5543
sVm.03rt9
p5544
I5544
sVm.0806bn2
p5545
I5545
sVm.0hr6ny2
p5546
I5546
sVm.07g8r3
p5547
I5547
sVm.0w49yrt
p5548
I5548
sVm.05gjj1
p5549
I5549
sVm.0h4y7
p5550
I5550
sVm.0y5kkcc
p5551
I3817
sVm.03_y7s
p5552
I5552
sVm.0gx3rxb
p5553
I5553
sVm.042g53r
p5554
I5841
sVm.0v1kqgd
p5555
I5555
sVm.0y7vm8b
p5556
I5556
sVm.05wjc
p5557
I5557
sVm.0w4bby8
p5558
I5558
sVm.0yhskbx
p5559
I5559
sVm.0w4bjpq
p5560
I5560
sVm.0286nkw
p5561
I5561
sVm.0j9m0k2
p5562
I5562
sVm.0gxbgh8
p5563
I5563
sVg.122s944s
p5564
I5564
sVm.0nfkx88
p5565
I5565
sVm.07k53y
p5566
I3897
sVm.0blpg
p5567
I3900
sVm.0876zt
p5568
I5568
sVm.0vx5bv_
p5569
I5569
sVm.0fg9js
p5570
I5570
sVm.0y5whvq
p5571
I5571
sVm.0ycr_ml
p5572
I5572
sVm.0c7lflb
p5573
I5573
sVm.026rkjw
p5574
I5574
sVm.02ht342
p5575
I5575
sVm.0w4b9pr
p5576
I5576
sVm.0blp1
p5577
I5577
sVm.0m0sdhf
p5578
I5578
sVm.0vnltcd
p5579
I5579
sVm.0h7bfpf
p5580
I5580
sVm.0y7vll9
p5581
I3983
sVm.0yhsg3f
p5582
I5582
sVm.0djwy5
p5583
I5583
sVm.0vmyg4b
p5584
I5584
sVm.02pnb12
p5585
I4013
sVm.0y5c23h
p5586
I5586
sVm.0274cp5
p5587
I5587
sVm.0982zs
p5588
I5588
sVm.0y5mgrd
p5589
I5589
sVm.0y7vv1b
p5590
I5590
sVm.0y7mzw4
p5591
I5591
sVg.121y0bnz
p5592
I5592
sVm.01xrdt7
p5593
I5593
sVm.06h0pd
p5594
I5594
sVm.0by43z3
p5595
I5595
sVm.02x0qnq
p5596
I5596
sVm.0crssyh
p5597
I5597
sVm.05jp_y
p5598
I5598
sVm.0h388rh
p5599
I5599
sVm.02rg_b7
p5600
I5600
sVm.0ycqpcv
p5601
I5601
sVm.04zhqyn
p5602
I4099
sVm.03yw506
p5603
I5603
sVm.011v7lpm
p5604
I5604
sVm.08pqcj
p5605
I5605
sVm.0w49y_0
p5606
I5606
sVm.0mmmt
p5607
I5607
sVm.0fv__l
p5608
I5608
sVm.0d8f6c
p5609
I5609
sVm.064016d
p5610
I5610
sVg.122h0hy4
p5611
I5611
sVm.0y7nflz
p5612
I5612
sVm.0wy7fl1
p5613
I5613
sVm.0y85nw2
p5614
I5614
sVm.0bc2zj2
p5615
I5615
sVm.04zz09x
p5616
I5616
sVm.0y83tf4
p5617
I4160
sVm.0b3jbr
p5618
I5618
sVm.0wrshm2
p5619
I5619
sVm.0b_nk3
p5620
I5620
sVm.07s79r7
p5621
I5621
sVm.04j1phy
p5622
I5622
sVm.05sy2k_
p5623
I4198
sVm.0_z8lv7
p5624
I5625
sVm.0vx69wf
p5625
I5626
sVm.031sqf
p5626
I5627
sVm.0gjc4d3
p5627
I5628
sVm.0c7ll4s
p5628
I5629
sVm.076gkp
p5629
I5630
sVm.037fvx
p5630
I5631
sVm.05g3b
p5631
I5632
sVm.0p10d9_
p5632
I5633
sVm.0h31478
p5633
I5634
sVm.07s64cw
p5634
I5635
sVm.0v3bh8b
p5635
I5636
sVm.02b61v
p5636
I5637
sVm.0bw0rv
p5637
I5638
sVm.0mv2xg2
p5638
I5854
sVm.0csyvz
p5639
I5640
sVm.0gy7hqq
p5640
I5641
sVm.0y7vl41
p5641
I5642
sVm.0528v8c
p5642
I5643
sVm.0svr7_b
p5643
I5644
sVm.0vvh1vf
p5644
I5645
sVm.06wbm8
p5645
I5646
sVm.0yhsvd7
p5646
I5647
sVm.09cyx23
p5647
I1933
sVm.06w1bkm
p5648
I5649
sVm.0f6b_0
p5649
I5651
sVm.0809v_r
p5650
I5652
sVm.05czz29
p5651
I3899
sVm.07_bt8
p5652
I5653
sVm.0v9n206
p5653
I5654
sVm.01k51k
p5654
I5655
sVm.04306rv
p5655
I5656
sVm.06_w90f
p5656
I5657
sVm.0dbfgz
p5657
I5658
sVm.01nhpq
p5658
I5659
sVm.0y5mcgl
p5659
I5472
sVm.01y9r2
p5660
I5661
sVm.03_js
p5661
I5662
sVm.02nt3d
p5662
I5663
sVm.0y5mcgd
p5663
I5664
sVm.0y5mcgy
p5664
I5665
sVm.05gfp
p5665
I5666
sVm.0y7nbpy
p5666
I4484
sVm.0y5ww6h
p5667
I4494
sVm.05ynxl
p5668
I5669
sVm.0y85362
p5669
I5670
sVm.0djqxp
p5670
I5671
sVm.03d5rwy
p5671
I4504
sVm.03v0t
p5672
I5673
sVm.0b22lsy
p5673
I5674
sVm.04tty2
p5674
I5675
sVm.0gz4_08
p5675
I5676
sVm.02hwp0r
p5676
I5677
sVm.0c1j6m4
p5677
I5678
sVm.0gj6wm9
p5678
I5679
sVm.0p19n71
p5679
I5680
sVm.0vmyfwp
p5680
I5681
sVm.03gq4g7
p5681
I5682
sVm.0yd8yhy
p5682
I3669
sVm.0j1yf
p5683
I5684
sVm.07hqvg
p5684
I5685
sVm.0pbxmdv
p5685
I5686
sVm.043rq8n
p5686
I5687
sVm.0hqg8b5
p5687
I5688
sVm.0tlt31w
p5688
I5689
sVm.026kcxk
p5689
I5690
sVm.037kqv
p5690
I5691
sVm.09v4kv1
p5691
I5692
sVm.0y5ht9r
p5692
I5693
sVm.0yhswzl
p5693
I5694
sVm.0vmyg6h
p5694
I5792
sVm.0v43grn
p5695
I5695
sVm.01sxhc
p5696
I5696
sVm.0m3fp
p5697
I5697
sVm.047vq3d
p5698
I5698
sVm.0d73c9w
p5699
I5699
sVm.0v1kkn3
p5700
I4019
sVm.0bjq4
p5701
I5701
sVm.0rmg
p5702
I5702
sVm.0f22p8
p5703
I5703
sVm.09hlm1
p5704
I5704
sVm.0y84s7f
p5705
I232
sVm.0v111ys
p5706
I5706
sVm.0bhb_d1
p5707
I5707
sVm.0y8zy00
p5708
I5874
sVm.01jzbz
p5709
I5709
sVm.07wwk6m
p5710
I5710
sVm.02pwlkz
p5711
I5711
sVm.0rzrm5z
p5712
I1934
sVm.0y7n43g
p5713
I5713
sVm.0yhspqc
p5714
I5714
sVm.0cc4ghw
p5715
I5715
sVm.0yhsfh7
p5716
I5716
sVm.0h37t8t
p5717
I5717
sVm.0svr7d9
p5718
I5718
sVm.0h62t1v
p5719
I5719
sVm.06nm1
p5720
I5720
sVm.0h34n_p
p5721
I5721
sVm.07wwk6_
p5722
I5722
sVg.1229dh1d
p5723
I5723
sVm.0y5c5r3
p5724
I5724
sVm.0p19dlt
p5725
I5725
sVm.08nl7x
p5726
I5726
sVm.0p0srbg
p5727
I5727
sVm.0nvg4
p5728
I5728
sVm.07wwk67
p5729
I5729
sVm.0crx3j8
p5730
I5730
sVm.04_0m
p5731
I5731
sVm.04bhyf
p5732
I5732
sVm.04czj6h
p5733
I5733
sVm.07gb81
p5734
I5734
sVm.09wmn4
p5735
I5735
sVm.02whsm5
p5736
I5736
sVm.0gh7wnl
p5737
I5737
sVm.0_rdhgj
p5738
I5738
sVm.0y85w6w
p5739
I5739
sVm.02xj992
p5740
I5740
sVm.0bmfzxx
p5741
I5741
sVm.0gyky64
p5742
I5742
sVm.0gcxp07
p5743
I5743
sVm.0y8zn31
p5744
I5744
sVm.043vqws
p5745
I5745
sVm.0gfn0ql
p5746
I5746
sVm.0h667v3
p5747
I5747
sVm.0pbxmyf
p5748
I5748
sVm.0147fv
p5749
I5023
sVm.027gynh
p5750
I5750
sVm.0y5cf9n
p5751
I5751
sVm.0ydxywz
p5752
I5752
sVm.0dtrwv
p5753
I5753
sVm.041s4z
p5754
I5754
sVm.0vx5k00
p5755
I5755
sVm.02822
p5756
I5623
sVm.0y5mg8k
p5757
I5757
sVm.0h667vh
p5758
I5758
sVm.0h667vt
p5759
I5759
sVm.09v8clw
p5760
I5760
sVm.08pd2v9
p5761
I5114
sVm.0vb39wd
p5762
I5762
sVm.02qhjr
p5763
I5763
sVm.02nwzm
p5764
I5764
sVm.0ddnl
p5765
I5765
sVm.0l3r44k
p5766
I5766
sVm.0vmydvj
p5767
I5767
sVm.02r3q0
p5768
I5768
sVm.043nbpv
p5769
I5769
sVm.02cbhg
p5770
I5770
sVm.06w43jp
p5771
I5771
sVm.08159z
p5772
I5772
sVm.0w4bjn5
p5773
I5773
sVm.0dgbf7q
p5774
I5774
sVm.05nlx4
p5775
I5775
sVm.02r5j77
p5776
I5776
sVm.0989zm
p5777
I5777
sVm.0hq8pbl
p5778
I5778
sVm.03bxt40
p5779
I5779
sVm.04f9bz6
p5780
I5780
sVm.0hq8pbt
p5781
I5781
sVm.02wjqm
p5782
I5782
sVm.0y5c6px
p5783
I5783
sVm.0y5mgpn
p5784
I5784
sVm.0n4ck66
p5785
I5785
sVm.0h4_8yc
p5786
I5786
sVm.0h16x7
p5787
I5787
sVm.06tn1x
p5788
I5788
sVm.0z45h4q
p5789
I5789
sVm.0y7ngth
p5790
I5790
sVm.039cq4
p5791
I5791
sVm.0bw20
p5792
I5650
sVm.0yhsspq
p5793
I5284
sVm.0hcdvs5
p5794
I5794
sVm.0zt906w
p5795
I5795
sVm.0gw5360
p5796
I5796
sVm.0kfrprn
p5797
I5797
sVm.0c1h0c8
p5798
I5302
sVm.0fvgq_
p5799
I5799
sVm.021r0s
p5800
I5800
sVm.046x35j
p5801
I5317
sVm.0h77dj
p5802
I5802
sVm.0p18xdy
p5803
I5803
sVm.0407v2n
p5804
I5804
sVm.02_1z2f
p5805
I5805
sVm.044801x
p5806
I5806
sVm.07bsj
p5807
I5807
sVm.0hzc9wc
p5808
I5808
sVm.0v06rfz
p5809
I5809
sVm.02nrqnw
p5810
I5810
sVm.05xd_v
p5811
I1576
sVm.0yht1rx
p5812
I5812
sVm.0gwc3bn
p5813
I5813
sVm.02nrqng
p5814
I5814
sVm.0gwc3bf
p5815
I5815
sVm.033f_x
p5816
I5816
sVm.0yhswls
p5817
I5817
sVm.027l76k
p5818
I5818
sVg.11byb3r3l1
p5819
I5819
sVm.0m4mb
p5820
I5820
sVm.0c34mt
p5821
I5406
sVm.0z4p59w
p5822
I5822
sVm.052q4j
p5823
I5421
sVm.03188z
p5824
I5824
sVm.018js4
p5825
I5825
sVm.0c029cx
p5826
I5826
sVm.02896
p5827
I5827
sVm.0y5cfc_
p5828
I5828
sVm.0d76fmj
p5829
I5829
sVm.04_602
p5830
I5830
sVm.0640fwh
p5831
I5831
sVm.0gz5g4j
p5832
I5832
sVm.0yhsvfh
p5833
I5833
sVm.022l3q
p5834
I5834
sVm.02t85_5
p5835
I5835
sVm.019qq6
p5836
I5497
sVm.04jkkv9
p5837
I5837
sVm.0vb37wl
p5838
I5838
sVm.0v9n44z
p5839
I5839
sVm.0n40qmp
p5840
I5840
sVm.0ycsrhz
p5841
I5554
sVm.0v1klr6
p5842
I5842
sVm.01540
p5843
I5843
sVm.04j2lmc
p5844
I5844
sVm.0p19q9l
p5845
I5845
sVm.0gj8t_b
p5846
I5846
sVm.0y58jkg
p5847
I5847
sVm.0ndwt2w
p5848
I5848
sVm.027h42y
p5849
I5849
sVm.0y7vr__
p5850
I5850
sVm.0wpq3c2
p5851
I5851
sVm.0bz_v63
p5852
I5852
sVm.09h5k1
p5853
I5853
sVm.047_rdp
p5854
I5639
sVm.0h1d1z
p5855
I5855
sVm.0f0mcv
p5856
I5856
sVm.07cx07
p5857
I5857
sVm.0vpv29q
p5858
I5858
sVm.047m_4q
p5859
I5859
sVm.0crpf8t
p5860
I5860
sVm.05qqm
p5861
I5861
sVm.03gvj21
p5862
I5862
sVm.07_k0c0
p5863
I5863
sVm.0fpzwf
p5864
I5700
sVm.0pcdzfl
p5865
I5864
sVm.0z44fs5
p5866
I5865
sVm.04q7g_g
p5867
I5866
sVm.042kg
p5868
I5867
sVm.0crsfk1
p5869
I5868
sVm.02rhj2b
p5870
I5869
sVm.0k2t4m
p5871
I5870
sVm.0gys617
p5872
I5871
sVm.0dl6fv
p5873
I5872
sVm.0gq_v
p5874
I5873
sVm.027pdsx
p5875
I5708
sVm.0y83qtf
p5876
I5875
sVm.0bhjtb
p5877
I5876
sVm.0k6_bkh
p5878
I5877
sVm.0cr08n
p5879
I5878
sVm.03t17x
p5880
I5879
sVm.026pd8k
p5881
I5880
sVm.0zfn8hj
p5882
I5881
sVm.0y83s31
p5883
I5882
sVm.0n_57ys
p5884
I5883
sVm.0y7znhb
p5885
I5884
sVm.065r83
p5886
I5885
sVm.0h1b6
p5887
I5886
sVm.0y5htbp
p5888
I5887
sVm.0zfnk2z
p5889
I5888
sVm.0vmydqq
p5890
I5889
sVm.0myj0
p5891
I5890
sVm.01ql2t
p5892
I5891
sVm.042dk
p5893
I4464
sVm.0tl4m3v
p5894
I5893
sVm.04j03kw
p5895
I5894
sVm.0h5kk7y
p5896
I5899
sVm.0y5htb0
p5897
I5896
sVm.0jwd81p
p5898
I5897
sVm.0wfk8_x
p5899
I5898
sVm.0y853m_
p5900
I5895
s.